
CustomProject.elf:     file format elf32-avr

Sections:
Idx Name          Size      VMA       LMA       File off  Algn
  0 .data         000000d2  00800100  0000150a  0000159e  2**0
                  CONTENTS, ALLOC, LOAD, DATA
  1 .text         0000150a  00000000  00000000  00000094  2**1
                  CONTENTS, ALLOC, LOAD, READONLY, CODE
  2 .bss          00000071  008001d2  008001d2  00001670  2**0
                  ALLOC
  3 .comment      00000030  00000000  00000000  00001670  2**0
                  CONTENTS, READONLY
  4 .note.gnu.avr.deviceinfo 00000040  00000000  00000000  000016a0  2**2
                  CONTENTS, READONLY
  5 .debug_aranges 000001c0  00000000  00000000  000016e0  2**3
                  CONTENTS, READONLY, DEBUGGING
  6 .debug_info   0000202e  00000000  00000000  000018a0  2**0
                  CONTENTS, READONLY, DEBUGGING
  7 .debug_abbrev 00000b95  00000000  00000000  000038ce  2**0
                  CONTENTS, READONLY, DEBUGGING
  8 .debug_line   0000129c  00000000  00000000  00004463  2**0
                  CONTENTS, READONLY, DEBUGGING
  9 .debug_frame  0000042c  00000000  00000000  00005700  2**2
                  CONTENTS, READONLY, DEBUGGING
 10 .debug_str    00000bcd  00000000  00000000  00005b2c  2**0
                  CONTENTS, READONLY, DEBUGGING
 11 .debug_loc    0000170e  00000000  00000000  000066f9  2**0
                  CONTENTS, READONLY, DEBUGGING
 12 .debug_ranges 00000218  00000000  00000000  00007e07  2**0
                  CONTENTS, READONLY, DEBUGGING

Disassembly of section .text:

00000000 <__vectors>:
       0:	4f c0       	rjmp	.+158    	; 0xa0 <__ctors_end>
       2:	00 00       	nop
       4:	6b c0       	rjmp	.+214    	; 0xdc <__bad_interrupt>
       6:	00 00       	nop
       8:	69 c0       	rjmp	.+210    	; 0xdc <__bad_interrupt>
       a:	00 00       	nop
       c:	67 c0       	rjmp	.+206    	; 0xdc <__bad_interrupt>
       e:	00 00       	nop
      10:	65 c0       	rjmp	.+202    	; 0xdc <__bad_interrupt>
      12:	00 00       	nop
      14:	63 c0       	rjmp	.+198    	; 0xdc <__bad_interrupt>
      16:	00 00       	nop
      18:	61 c0       	rjmp	.+194    	; 0xdc <__bad_interrupt>
      1a:	00 00       	nop
      1c:	5f c0       	rjmp	.+190    	; 0xdc <__bad_interrupt>
      1e:	00 00       	nop
      20:	5d c0       	rjmp	.+186    	; 0xdc <__bad_interrupt>
      22:	00 00       	nop
      24:	5b c0       	rjmp	.+182    	; 0xdc <__bad_interrupt>
      26:	00 00       	nop
      28:	59 c0       	rjmp	.+178    	; 0xdc <__bad_interrupt>
      2a:	00 00       	nop
      2c:	57 c0       	rjmp	.+174    	; 0xdc <__bad_interrupt>
      2e:	00 00       	nop
      30:	55 c0       	rjmp	.+170    	; 0xdc <__bad_interrupt>
      32:	00 00       	nop
      34:	bf c0       	rjmp	.+382    	; 0x1b4 <__vector_13>
      36:	00 00       	nop
      38:	51 c0       	rjmp	.+162    	; 0xdc <__bad_interrupt>
      3a:	00 00       	nop
      3c:	4f c0       	rjmp	.+158    	; 0xdc <__bad_interrupt>
      3e:	00 00       	nop
      40:	4d c0       	rjmp	.+154    	; 0xdc <__bad_interrupt>
      42:	00 00       	nop
      44:	4b c0       	rjmp	.+150    	; 0xdc <__bad_interrupt>
      46:	00 00       	nop
      48:	49 c0       	rjmp	.+146    	; 0xdc <__bad_interrupt>
      4a:	00 00       	nop
      4c:	47 c0       	rjmp	.+142    	; 0xdc <__bad_interrupt>
      4e:	00 00       	nop
      50:	45 c0       	rjmp	.+138    	; 0xdc <__bad_interrupt>
      52:	00 00       	nop
      54:	43 c0       	rjmp	.+134    	; 0xdc <__bad_interrupt>
      56:	00 00       	nop
      58:	41 c0       	rjmp	.+130    	; 0xdc <__bad_interrupt>
      5a:	00 00       	nop
      5c:	3f c0       	rjmp	.+126    	; 0xdc <__bad_interrupt>
      5e:	00 00       	nop
      60:	3d c0       	rjmp	.+122    	; 0xdc <__bad_interrupt>
      62:	00 00       	nop
      64:	3b c0       	rjmp	.+118    	; 0xdc <__bad_interrupt>
      66:	00 00       	nop
      68:	39 c0       	rjmp	.+114    	; 0xdc <__bad_interrupt>
      6a:	00 00       	nop
      6c:	37 c0       	rjmp	.+110    	; 0xdc <__bad_interrupt>
      6e:	00 00       	nop
      70:	35 c0       	rjmp	.+106    	; 0xdc <__bad_interrupt>
      72:	00 00       	nop
      74:	33 c0       	rjmp	.+102    	; 0xdc <__bad_interrupt>
      76:	00 00       	nop
      78:	31 c0       	rjmp	.+98     	; 0xdc <__bad_interrupt>
      7a:	00 00       	nop
      7c:	2f c0       	rjmp	.+94     	; 0xdc <__bad_interrupt>
      7e:	00 00       	nop
      80:	2d c0       	rjmp	.+90     	; 0xdc <__bad_interrupt>
      82:	00 00       	nop
      84:	2b c0       	rjmp	.+86     	; 0xdc <__bad_interrupt>
      86:	00 00       	nop
      88:	29 c0       	rjmp	.+82     	; 0xdc <__bad_interrupt>
      8a:	00 00       	nop
      8c:	ea 04       	cpc	r14, r10
      8e:	ee 04       	cpc	r14, r14
      90:	f2 04       	cpc	r15, r2
      92:	f6 04       	cpc	r15, r6
      94:	fa 04       	cpc	r15, r10
      96:	fe 04       	cpc	r15, r14
      98:	02 05       	cpc	r16, r2
      9a:	06 05       	cpc	r16, r6
      9c:	0a 05       	cpc	r16, r10
      9e:	0e 05       	cpc	r16, r14

000000a0 <__ctors_end>:
      a0:	11 24       	eor	r1, r1
      a2:	1f be       	out	0x3f, r1	; 63
      a4:	cf ef       	ldi	r28, 0xFF	; 255
      a6:	d0 e4       	ldi	r29, 0x40	; 64
      a8:	de bf       	out	0x3e, r29	; 62
      aa:	cd bf       	out	0x3d, r28	; 61

000000ac <__do_copy_data>:
      ac:	11 e0       	ldi	r17, 0x01	; 1
      ae:	a0 e0       	ldi	r26, 0x00	; 0
      b0:	b1 e0       	ldi	r27, 0x01	; 1
      b2:	ea e0       	ldi	r30, 0x0A	; 10
      b4:	f5 e1       	ldi	r31, 0x15	; 21
      b6:	00 e0       	ldi	r16, 0x00	; 0
      b8:	0b bf       	out	0x3b, r16	; 59
      ba:	02 c0       	rjmp	.+4      	; 0xc0 <__do_copy_data+0x14>
      bc:	07 90       	elpm	r0, Z+
      be:	0d 92       	st	X+, r0
      c0:	a2 3d       	cpi	r26, 0xD2	; 210
      c2:	b1 07       	cpc	r27, r17
      c4:	d9 f7       	brne	.-10     	; 0xbc <__do_copy_data+0x10>

000000c6 <__do_clear_bss>:
      c6:	22 e0       	ldi	r18, 0x02	; 2
      c8:	a2 ed       	ldi	r26, 0xD2	; 210
      ca:	b1 e0       	ldi	r27, 0x01	; 1
      cc:	01 c0       	rjmp	.+2      	; 0xd0 <.do_clear_bss_start>

000000ce <.do_clear_bss_loop>:
      ce:	1d 92       	st	X+, r1

000000d0 <.do_clear_bss_start>:
      d0:	a3 34       	cpi	r26, 0x43	; 67
      d2:	b2 07       	cpc	r27, r18
      d4:	e1 f7       	brne	.-8      	; 0xce <.do_clear_bss_loop>
      d6:	09 d6       	rcall	.+3090   	; 0xcea <main>
      d8:	0c 94 83 0a 	jmp	0x1506	; 0x1506 <_exit>

000000dc <__bad_interrupt>:
      dc:	91 cf       	rjmp	.-222    	; 0x0 <__vectors>

000000de <time>:
      de:	fc 01       	movw	r30, r24
      e0:	0f b6       	in	r0, 0x3f	; 63
      e2:	f8 94       	cli
      e4:	60 91 3f 02 	lds	r22, 0x023F	; 0x80023f <__system_time>
      e8:	70 91 40 02 	lds	r23, 0x0240	; 0x800240 <__system_time+0x1>
      ec:	80 91 41 02 	lds	r24, 0x0241	; 0x800241 <__system_time+0x2>
      f0:	90 91 42 02 	lds	r25, 0x0242	; 0x800242 <__system_time+0x3>
      f4:	0f be       	out	0x3f, r0	; 63
      f6:	30 97       	sbiw	r30, 0x00	; 0
      f8:	21 f0       	breq	.+8      	; 0x102 <time+0x24>
      fa:	60 83       	st	Z, r22
      fc:	71 83       	std	Z+1, r23	; 0x01
      fe:	82 83       	std	Z+2, r24	; 0x02
     100:	93 83       	std	Z+3, r25	; 0x03
     102:	08 95       	ret

00000104 <terrain_tick>:
		if(c==0){return b;}
		a = b;
		b = c;
	}
	return 0;
}
     104:	00 97       	sbiw	r24, 0x00	; 0
     106:	21 f0       	breq	.+8      	; 0x110 <terrain_tick+0xc>
     108:	81 30       	cpi	r24, 0x01	; 1
     10a:	91 05       	cpc	r25, r1
     10c:	31 f0       	breq	.+12     	; 0x11a <terrain_tick+0x16>
     10e:	0a c0       	rjmp	.+20     	; 0x124 <terrain_tick+0x20>
     110:	80 91 39 02 	lds	r24, 0x0239	; 0x800239 <playFlag>
     114:	81 30       	cpi	r24, 0x01	; 1
     116:	61 f4       	brne	.+24     	; 0x130 <terrain_tick+0x2c>
     118:	10 c0       	rjmp	.+32     	; 0x13a <terrain_tick+0x36>
     11a:	80 91 39 02 	lds	r24, 0x0239	; 0x800239 <playFlag>
     11e:	88 23       	and	r24, r24
     120:	39 f0       	breq	.+14     	; 0x130 <terrain_tick+0x2c>
     122:	0b c0       	rjmp	.+22     	; 0x13a <terrain_tick+0x36>
     124:	00 97       	sbiw	r24, 0x00	; 0
     126:	21 f0       	breq	.+8      	; 0x130 <terrain_tick+0x2c>
     128:	81 30       	cpi	r24, 0x01	; 1
     12a:	91 05       	cpc	r25, r1
     12c:	69 f4       	brne	.+26     	; 0x148 <terrain_tick+0x44>
     12e:	05 c0       	rjmp	.+10     	; 0x13a <terrain_tick+0x36>
     130:	10 92 35 02 	sts	0x0235, r1	; 0x800235 <terrainShift>
     134:	80 e0       	ldi	r24, 0x00	; 0
     136:	90 e0       	ldi	r25, 0x00	; 0
     138:	08 95       	ret
     13a:	80 91 35 02 	lds	r24, 0x0235	; 0x800235 <terrainShift>
     13e:	8f 5f       	subi	r24, 0xFF	; 255
     140:	80 93 35 02 	sts	0x0235, r24	; 0x800235 <terrainShift>
     144:	81 e0       	ldi	r24, 0x01	; 1
     146:	90 e0       	ldi	r25, 0x00	; 0
     148:	08 95       	ret

0000014a <TimerSet>:
     14a:	60 93 45 01 	sts	0x0145, r22	; 0x800145 <_avr_timer_M>
     14e:	70 93 46 01 	sts	0x0146, r23	; 0x800146 <_avr_timer_M+0x1>
     152:	80 93 47 01 	sts	0x0147, r24	; 0x800147 <_avr_timer_M+0x2>
     156:	90 93 48 01 	sts	0x0148, r25	; 0x800148 <_avr_timer_M+0x3>
     15a:	60 93 3a 02 	sts	0x023A, r22	; 0x80023a <_avr_timer_cntcurr>
     15e:	70 93 3b 02 	sts	0x023B, r23	; 0x80023b <_avr_timer_cntcurr+0x1>
     162:	80 93 3c 02 	sts	0x023C, r24	; 0x80023c <_avr_timer_cntcurr+0x2>
     166:	90 93 3d 02 	sts	0x023D, r25	; 0x80023d <_avr_timer_cntcurr+0x3>
     16a:	08 95       	ret

0000016c <TimerOn>:
     16c:	8b e0       	ldi	r24, 0x0B	; 11
     16e:	80 93 81 00 	sts	0x0081, r24	; 0x800081 <__TEXT_REGION_LENGTH__+0x7e0081>
     172:	8d e7       	ldi	r24, 0x7D	; 125
     174:	90 e0       	ldi	r25, 0x00	; 0
     176:	90 93 89 00 	sts	0x0089, r25	; 0x800089 <__TEXT_REGION_LENGTH__+0x7e0089>
     17a:	80 93 88 00 	sts	0x0088, r24	; 0x800088 <__TEXT_REGION_LENGTH__+0x7e0088>
     17e:	82 e0       	ldi	r24, 0x02	; 2
     180:	80 93 6f 00 	sts	0x006F, r24	; 0x80006f <__TEXT_REGION_LENGTH__+0x7e006f>
     184:	10 92 85 00 	sts	0x0085, r1	; 0x800085 <__TEXT_REGION_LENGTH__+0x7e0085>
     188:	10 92 84 00 	sts	0x0084, r1	; 0x800084 <__TEXT_REGION_LENGTH__+0x7e0084>
     18c:	80 91 45 01 	lds	r24, 0x0145	; 0x800145 <_avr_timer_M>
     190:	90 91 46 01 	lds	r25, 0x0146	; 0x800146 <_avr_timer_M+0x1>
     194:	a0 91 47 01 	lds	r26, 0x0147	; 0x800147 <_avr_timer_M+0x2>
     198:	b0 91 48 01 	lds	r27, 0x0148	; 0x800148 <_avr_timer_M+0x3>
     19c:	80 93 3a 02 	sts	0x023A, r24	; 0x80023a <_avr_timer_cntcurr>
     1a0:	90 93 3b 02 	sts	0x023B, r25	; 0x80023b <_avr_timer_cntcurr+0x1>
     1a4:	a0 93 3c 02 	sts	0x023C, r26	; 0x80023c <_avr_timer_cntcurr+0x2>
     1a8:	b0 93 3d 02 	sts	0x023D, r27	; 0x80023d <_avr_timer_cntcurr+0x3>
     1ac:	8f b7       	in	r24, 0x3f	; 63
     1ae:	80 68       	ori	r24, 0x80	; 128
     1b0:	8f bf       	out	0x3f, r24	; 63
     1b2:	08 95       	ret

000001b4 <__vector_13>:
     1b4:	1f 92       	push	r1
     1b6:	0f 92       	push	r0
     1b8:	0f b6       	in	r0, 0x3f	; 63
     1ba:	0f 92       	push	r0
     1bc:	11 24       	eor	r1, r1
     1be:	8f 93       	push	r24
     1c0:	9f 93       	push	r25
     1c2:	af 93       	push	r26
     1c4:	bf 93       	push	r27
     1c6:	80 91 3a 02 	lds	r24, 0x023A	; 0x80023a <_avr_timer_cntcurr>
     1ca:	90 91 3b 02 	lds	r25, 0x023B	; 0x80023b <_avr_timer_cntcurr+0x1>
     1ce:	a0 91 3c 02 	lds	r26, 0x023C	; 0x80023c <_avr_timer_cntcurr+0x2>
     1d2:	b0 91 3d 02 	lds	r27, 0x023D	; 0x80023d <_avr_timer_cntcurr+0x3>
     1d6:	01 97       	sbiw	r24, 0x01	; 1
     1d8:	a1 09       	sbc	r26, r1
     1da:	b1 09       	sbc	r27, r1
     1dc:	80 93 3a 02 	sts	0x023A, r24	; 0x80023a <_avr_timer_cntcurr>
     1e0:	90 93 3b 02 	sts	0x023B, r25	; 0x80023b <_avr_timer_cntcurr+0x1>
     1e4:	a0 93 3c 02 	sts	0x023C, r26	; 0x80023c <_avr_timer_cntcurr+0x2>
     1e8:	b0 93 3d 02 	sts	0x023D, r27	; 0x80023d <_avr_timer_cntcurr+0x3>
     1ec:	89 2b       	or	r24, r25
     1ee:	8a 2b       	or	r24, r26
     1f0:	8b 2b       	or	r24, r27
     1f2:	99 f4       	brne	.+38     	; 0x21a <__vector_13+0x66>
     1f4:	81 e0       	ldi	r24, 0x01	; 1
     1f6:	80 93 3e 02 	sts	0x023E, r24	; 0x80023e <TimerFlag>
     1fa:	80 91 45 01 	lds	r24, 0x0145	; 0x800145 <_avr_timer_M>
     1fe:	90 91 46 01 	lds	r25, 0x0146	; 0x800146 <_avr_timer_M+0x1>
     202:	a0 91 47 01 	lds	r26, 0x0147	; 0x800147 <_avr_timer_M+0x2>
     206:	b0 91 48 01 	lds	r27, 0x0148	; 0x800148 <_avr_timer_M+0x3>
     20a:	80 93 3a 02 	sts	0x023A, r24	; 0x80023a <_avr_timer_cntcurr>
     20e:	90 93 3b 02 	sts	0x023B, r25	; 0x80023b <_avr_timer_cntcurr+0x1>
     212:	a0 93 3c 02 	sts	0x023C, r26	; 0x80023c <_avr_timer_cntcurr+0x2>
     216:	b0 93 3d 02 	sts	0x023D, r27	; 0x80023d <_avr_timer_cntcurr+0x3>
     21a:	bf 91       	pop	r27
     21c:	af 91       	pop	r26
     21e:	9f 91       	pop	r25
     220:	8f 91       	pop	r24
     222:	0f 90       	pop	r0
     224:	0f be       	out	0x3f, r0	; 63
     226:	0f 90       	pop	r0
     228:	1f 90       	pop	r1
     22a:	18 95       	reti

0000022c <delay_ms>:
     22c:	18 16       	cp	r1, r24
     22e:	19 06       	cpc	r1, r25
     230:	5c f0       	brlt	.+22     	; 0x248 <delay_ms+0x1c>
     232:	08 95       	ret
     234:	00 00       	nop
     236:	21 50       	subi	r18, 0x01	; 1
     238:	31 09       	sbc	r19, r1
     23a:	e1 f7       	brne	.-8      	; 0x234 <delay_ms+0x8>
     23c:	4f 5f       	subi	r20, 0xFF	; 255
     23e:	5f 4f       	sbci	r21, 0xFF	; 255
     240:	84 17       	cp	r24, r20
     242:	95 07       	cpc	r25, r21
     244:	19 f4       	brne	.+6      	; 0x24c <delay_ms+0x20>
     246:	08 95       	ret
     248:	40 e0       	ldi	r20, 0x00	; 0
     24a:	50 e0       	ldi	r21, 0x00	; 0
     24c:	27 e0       	ldi	r18, 0x07	; 7
     24e:	33 e0       	ldi	r19, 0x03	; 3
     250:	f1 cf       	rjmp	.-30     	; 0x234 <delay_ms+0x8>

00000252 <LCD_WriteCommand>:
     252:	10 98       	cbi	0x02, 0	; 2
     254:	8b b9       	out	0x0b, r24	; 11
     256:	11 9a       	sbi	0x02, 1	; 2
     258:	00 00       	nop
     25a:	11 98       	cbi	0x02, 1	; 2
     25c:	82 e0       	ldi	r24, 0x02	; 2
     25e:	90 e0       	ldi	r25, 0x00	; 0
     260:	e5 cf       	rjmp	.-54     	; 0x22c <delay_ms>
     262:	08 95       	ret

00000264 <LCD_ClearScreen>:
     264:	81 e0       	ldi	r24, 0x01	; 1
     266:	f5 cf       	rjmp	.-22     	; 0x252 <LCD_WriteCommand>
     268:	08 95       	ret

0000026a <LCD_Cursor>:
     26a:	81 31       	cpi	r24, 0x11	; 17
     26c:	18 f4       	brcc	.+6      	; 0x274 <LCD_Cursor+0xa>
     26e:	81 58       	subi	r24, 0x81	; 129
     270:	f0 cf       	rjmp	.-32     	; 0x252 <LCD_WriteCommand>
     272:	08 95       	ret
     274:	81 55       	subi	r24, 0x51	; 81
     276:	ed cf       	rjmp	.-38     	; 0x252 <LCD_WriteCommand>
     278:	08 95       	ret

0000027a <LCD_init>:
     27a:	84 e6       	ldi	r24, 0x64	; 100
     27c:	90 e0       	ldi	r25, 0x00	; 0
     27e:	d6 df       	rcall	.-84     	; 0x22c <delay_ms>
     280:	88 e3       	ldi	r24, 0x38	; 56
     282:	e7 df       	rcall	.-50     	; 0x252 <LCD_WriteCommand>
     284:	86 e0       	ldi	r24, 0x06	; 6
     286:	e5 df       	rcall	.-54     	; 0x252 <LCD_WriteCommand>
     288:	8f e0       	ldi	r24, 0x0F	; 15
     28a:	e3 df       	rcall	.-58     	; 0x252 <LCD_WriteCommand>
     28c:	81 e0       	ldi	r24, 0x01	; 1
     28e:	e1 df       	rcall	.-62     	; 0x252 <LCD_WriteCommand>
     290:	8a e0       	ldi	r24, 0x0A	; 10
     292:	90 e0       	ldi	r25, 0x00	; 0
     294:	cb cf       	rjmp	.-106    	; 0x22c <delay_ms>
     296:	08 95       	ret

00000298 <LCD_WriteData>:
     298:	10 9a       	sbi	0x02, 0	; 2
     29a:	8b b9       	out	0x0b, r24	; 11
     29c:	11 9a       	sbi	0x02, 1	; 2
     29e:	00 00       	nop
     2a0:	11 98       	cbi	0x02, 1	; 2
     2a2:	81 e0       	ldi	r24, 0x01	; 1
     2a4:	90 e0       	ldi	r25, 0x00	; 0
     2a6:	c2 cf       	rjmp	.-124    	; 0x22c <delay_ms>
     2a8:	08 95       	ret

000002aa <LCD_DisplayString>:
     2aa:	0f 93       	push	r16
     2ac:	1f 93       	push	r17
     2ae:	cf 93       	push	r28
     2b0:	df 93       	push	r29
     2b2:	18 2f       	mov	r17, r24
     2b4:	eb 01       	movw	r28, r22
     2b6:	d6 df       	rcall	.-84     	; 0x264 <LCD_ClearScreen>
     2b8:	88 81       	ld	r24, Y
     2ba:	88 23       	and	r24, r24
     2bc:	51 f0       	breq	.+20     	; 0x2d2 <LCD_DisplayString+0x28>
     2be:	01 e0       	ldi	r16, 0x01	; 1
     2c0:	01 0f       	add	r16, r17
     2c2:	81 2f       	mov	r24, r17
     2c4:	d2 df       	rcall	.-92     	; 0x26a <LCD_Cursor>
     2c6:	89 91       	ld	r24, Y+
     2c8:	e7 df       	rcall	.-50     	; 0x298 <LCD_WriteData>
     2ca:	10 2f       	mov	r17, r16
     2cc:	88 81       	ld	r24, Y
     2ce:	81 11       	cpse	r24, r1
     2d0:	f6 cf       	rjmp	.-20     	; 0x2be <LCD_DisplayString+0x14>
     2d2:	df 91       	pop	r29
     2d4:	cf 91       	pop	r28
     2d6:	1f 91       	pop	r17
     2d8:	0f 91       	pop	r16
     2da:	08 95       	ret

000002dc <set_PWM>:
     2dc:	cf 92       	push	r12
     2de:	df 92       	push	r13
     2e0:	ef 92       	push	r14
     2e2:	ff 92       	push	r15
     2e4:	6b 01       	movw	r12, r22
     2e6:	7c 01       	movw	r14, r24
     2e8:	9b 01       	movw	r18, r22
     2ea:	ac 01       	movw	r20, r24
     2ec:	60 91 30 02 	lds	r22, 0x0230	; 0x800230 <current_frequency.2344>
     2f0:	70 91 31 02 	lds	r23, 0x0231	; 0x800231 <current_frequency.2344+0x1>
     2f4:	80 91 32 02 	lds	r24, 0x0232	; 0x800232 <current_frequency.2344+0x2>
     2f8:	90 91 33 02 	lds	r25, 0x0233	; 0x800233 <current_frequency.2344+0x3>
     2fc:	93 d6       	rcall	.+3366   	; 0x1024 <__cmpsf2>
     2fe:	88 23       	and	r24, r24
     300:	09 f4       	brne	.+2      	; 0x304 <set_PWM+0x28>
     302:	4f c0       	rjmp	.+158    	; 0x3a2 <set_PWM+0xc6>
     304:	20 e0       	ldi	r18, 0x00	; 0
     306:	30 e0       	ldi	r19, 0x00	; 0
     308:	a9 01       	movw	r20, r18
     30a:	c7 01       	movw	r24, r14
     30c:	b6 01       	movw	r22, r12
     30e:	8a d6       	rcall	.+3348   	; 0x1024 <__cmpsf2>
     310:	81 11       	cpse	r24, r1
     312:	06 c0       	rjmp	.+12     	; 0x320 <set_PWM+0x44>
     314:	e1 e9       	ldi	r30, 0x91	; 145
     316:	f0 e0       	ldi	r31, 0x00	; 0
     318:	80 81       	ld	r24, Z
     31a:	88 70       	andi	r24, 0x08	; 8
     31c:	80 83       	st	Z, r24
     31e:	05 c0       	rjmp	.+10     	; 0x32a <set_PWM+0x4e>
     320:	e1 e9       	ldi	r30, 0x91	; 145
     322:	f0 e0       	ldi	r31, 0x00	; 0
     324:	80 81       	ld	r24, Z
     326:	83 60       	ori	r24, 0x03	; 3
     328:	80 83       	st	Z, r24
     32a:	28 e5       	ldi	r18, 0x58	; 88
     32c:	39 e3       	ldi	r19, 0x39	; 57
     32e:	44 e7       	ldi	r20, 0x74	; 116
     330:	5f e3       	ldi	r21, 0x3F	; 63
     332:	c7 01       	movw	r24, r14
     334:	b6 01       	movw	r22, r12
     336:	76 d6       	rcall	.+3308   	; 0x1024 <__cmpsf2>
     338:	88 23       	and	r24, r24
     33a:	3c f4       	brge	.+14     	; 0x34a <set_PWM+0x6e>
     33c:	8f ef       	ldi	r24, 0xFF	; 255
     33e:	9f ef       	ldi	r25, 0xFF	; 255
     340:	90 93 99 00 	sts	0x0099, r25	; 0x800099 <__TEXT_REGION_LENGTH__+0x7e0099>
     344:	80 93 98 00 	sts	0x0098, r24	; 0x800098 <__TEXT_REGION_LENGTH__+0x7e0098>
     348:	23 c0       	rjmp	.+70     	; 0x390 <set_PWM+0xb4>
     34a:	20 e0       	ldi	r18, 0x00	; 0
     34c:	34 e2       	ldi	r19, 0x24	; 36
     34e:	44 ef       	ldi	r20, 0xF4	; 244
     350:	56 e4       	ldi	r21, 0x46	; 70
     352:	c7 01       	movw	r24, r14
     354:	b6 01       	movw	r22, r12
     356:	78 d7       	rcall	.+3824   	; 0x1248 <__gesf2>
     358:	18 16       	cp	r1, r24
     35a:	2c f4       	brge	.+10     	; 0x366 <set_PWM+0x8a>
     35c:	10 92 99 00 	sts	0x0099, r1	; 0x800099 <__TEXT_REGION_LENGTH__+0x7e0099>
     360:	10 92 98 00 	sts	0x0098, r1	; 0x800098 <__TEXT_REGION_LENGTH__+0x7e0098>
     364:	15 c0       	rjmp	.+42     	; 0x390 <set_PWM+0xb4>
     366:	20 e0       	ldi	r18, 0x00	; 0
     368:	30 e0       	ldi	r19, 0x00	; 0
     36a:	40 e0       	ldi	r20, 0x00	; 0
     36c:	53 e4       	ldi	r21, 0x43	; 67
     36e:	c7 01       	movw	r24, r14
     370:	b6 01       	movw	r22, r12
     372:	6e d7       	rcall	.+3804   	; 0x1250 <__mulsf3>
     374:	9b 01       	movw	r18, r22
     376:	ac 01       	movw	r20, r24
     378:	60 e0       	ldi	r22, 0x00	; 0
     37a:	74 e2       	ldi	r23, 0x24	; 36
     37c:	84 ef       	ldi	r24, 0xF4	; 244
     37e:	9a e4       	ldi	r25, 0x4A	; 74
     380:	55 d6       	rcall	.+3242   	; 0x102c <__divsf3>
     382:	bc d6       	rcall	.+3448   	; 0x10fc <__fixsfsi>
     384:	61 50       	subi	r22, 0x01	; 1
     386:	71 09       	sbc	r23, r1
     388:	70 93 99 00 	sts	0x0099, r23	; 0x800099 <__TEXT_REGION_LENGTH__+0x7e0099>
     38c:	60 93 98 00 	sts	0x0098, r22	; 0x800098 <__TEXT_REGION_LENGTH__+0x7e0098>
     390:	16 bc       	out	0x26, r1	; 38
     392:	c0 92 30 02 	sts	0x0230, r12	; 0x800230 <current_frequency.2344>
     396:	d0 92 31 02 	sts	0x0231, r13	; 0x800231 <current_frequency.2344+0x1>
     39a:	e0 92 32 02 	sts	0x0232, r14	; 0x800232 <current_frequency.2344+0x2>
     39e:	f0 92 33 02 	sts	0x0233, r15	; 0x800233 <current_frequency.2344+0x3>
     3a2:	ff 90       	pop	r15
     3a4:	ef 90       	pop	r14
     3a6:	df 90       	pop	r13
     3a8:	cf 90       	pop	r12
     3aa:	08 95       	ret

000003ac <collision_tick>:
     3ac:	7f 92       	push	r7
     3ae:	8f 92       	push	r8
     3b0:	9f 92       	push	r9
     3b2:	af 92       	push	r10
     3b4:	bf 92       	push	r11
     3b6:	cf 92       	push	r12
     3b8:	df 92       	push	r13
     3ba:	ef 92       	push	r14
     3bc:	ff 92       	push	r15
     3be:	0f 93       	push	r16
     3c0:	1f 93       	push	r17
     3c2:	cf 93       	push	r28
     3c4:	df 93       	push	r29
     3c6:	00 97       	sbiw	r24, 0x00	; 0
     3c8:	21 f0       	breq	.+8      	; 0x3d2 <collision_tick+0x26>
     3ca:	81 30       	cpi	r24, 0x01	; 1
     3cc:	91 05       	cpc	r25, r1
     3ce:	39 f0       	breq	.+14     	; 0x3de <collision_tick+0x32>
     3d0:	0c c0       	rjmp	.+24     	; 0x3ea <collision_tick+0x3e>
     3d2:	20 91 39 02 	lds	r18, 0x0239	; 0x800239 <playFlag>
     3d6:	21 30       	cpi	r18, 0x01	; 1
     3d8:	09 f0       	breq	.+2      	; 0x3dc <collision_tick+0x30>
     3da:	9e c0       	rjmp	.+316    	; 0x518 <__LOCK_REGION_LENGTH__+0x118>
     3dc:	0a c0       	rjmp	.+20     	; 0x3f2 <collision_tick+0x46>
     3de:	80 91 39 02 	lds	r24, 0x0239	; 0x800239 <playFlag>
     3e2:	88 23       	and	r24, r24
     3e4:	09 f4       	brne	.+2      	; 0x3e8 <collision_tick+0x3c>
     3e6:	96 c0       	rjmp	.+300    	; 0x514 <__LOCK_REGION_LENGTH__+0x114>
     3e8:	04 c0       	rjmp	.+8      	; 0x3f2 <collision_tick+0x46>
     3ea:	81 30       	cpi	r24, 0x01	; 1
     3ec:	91 05       	cpc	r25, r1
     3ee:	09 f0       	breq	.+2      	; 0x3f2 <collision_tick+0x46>
     3f0:	93 c0       	rjmp	.+294    	; 0x518 <__LOCK_REGION_LENGTH__+0x118>
     3f2:	0f e3       	ldi	r16, 0x3F	; 63
     3f4:	11 e0       	ldi	r17, 0x01	; 1
     3f6:	0f 2e       	mov	r0, r31
     3f8:	f4 e4       	ldi	r31, 0x44	; 68
     3fa:	8f 2e       	mov	r8, r31
     3fc:	f1 e0       	ldi	r31, 0x01	; 1
     3fe:	9f 2e       	mov	r9, r31
     400:	f0 2d       	mov	r31, r0
     402:	0f 2e       	mov	r0, r31
     404:	ff e3       	ldi	r31, 0x3F	; 63
     406:	af 2e       	mov	r10, r31
     408:	f1 e0       	ldi	r31, 0x01	; 1
     40a:	bf 2e       	mov	r11, r31
     40c:	f0 2d       	mov	r31, r0
     40e:	77 24       	eor	r7, r7
     410:	7a 94       	dec	r7
     412:	78 01       	movw	r14, r16
     414:	f8 01       	movw	r30, r16
     416:	80 81       	ld	r24, Z
     418:	8f 3f       	cpi	r24, 0xFF	; 255
     41a:	d1 f0       	breq	.+52     	; 0x450 <__LOCK_REGION_LENGTH__+0x50>
     41c:	cc e3       	ldi	r28, 0x3C	; 60
     41e:	d1 e0       	ldi	r29, 0x01	; 1
     420:	88 81       	ld	r24, Y
     422:	8f 3f       	cpi	r24, 0xFF	; 255
     424:	89 f0       	breq	.+34     	; 0x448 <__LOCK_REGION_LENGTH__+0x48>
     426:	f7 01       	movw	r30, r14
     428:	90 81       	ld	r25, Z
     42a:	89 13       	cpse	r24, r25
     42c:	0d c0       	rjmp	.+26     	; 0x448 <__LOCK_REGION_LENGTH__+0x48>
     42e:	60 e0       	ldi	r22, 0x00	; 0
     430:	70 e0       	ldi	r23, 0x00	; 0
     432:	8c ed       	ldi	r24, 0xDC	; 220
     434:	93 e4       	ldi	r25, 0x43	; 67
     436:	52 df       	rcall	.-348    	; 0x2dc <set_PWM>
     438:	80 91 37 02 	lds	r24, 0x0237	; 0x800237 <score>
     43c:	8f 5f       	subi	r24, 0xFF	; 255
     43e:	80 93 37 02 	sts	0x0237, r24	; 0x800237 <score>
     442:	f7 01       	movw	r30, r14
     444:	70 82       	st	Z, r7
     446:	78 82       	st	Y, r7
     448:	21 96       	adiw	r28, 0x01	; 1
     44a:	ac 16       	cp	r10, r28
     44c:	bd 06       	cpc	r11, r29
     44e:	41 f7       	brne	.-48     	; 0x420 <__LOCK_REGION_LENGTH__+0x20>
     450:	0f 5f       	subi	r16, 0xFF	; 255
     452:	1f 4f       	sbci	r17, 0xFF	; 255
     454:	80 16       	cp	r8, r16
     456:	91 06       	cpc	r9, r17
     458:	e1 f6       	brne	.-72     	; 0x412 <__LOCK_REGION_LENGTH__+0x12>
     45a:	c0 e1       	ldi	r28, 0x10	; 16
     45c:	00 e0       	ldi	r16, 0x00	; 0
     45e:	10 e0       	ldi	r17, 0x00	; 0
     460:	d1 e0       	ldi	r29, 0x01	; 1
     462:	80 91 35 02 	lds	r24, 0x0235	; 0x800235 <terrainShift>
     466:	f8 01       	movw	r30, r16
     468:	e8 0f       	add	r30, r24
     46a:	f1 1d       	adc	r31, r1
     46c:	ef 71       	andi	r30, 0x1F	; 31
     46e:	ff 27       	eor	r31, r31
     470:	ef 54       	subi	r30, 0x4F	; 79
     472:	fe 4f       	sbci	r31, 0xFE	; 254
     474:	80 81       	ld	r24, Z
     476:	80 32       	cpi	r24, 0x20	; 32
     478:	f9 f0       	breq	.+62     	; 0x4b8 <__LOCK_REGION_LENGTH__+0xb8>
     47a:	80 91 34 02 	lds	r24, 0x0234	; 0x800234 <player_one_location>
     47e:	8c 13       	cpse	r24, r28
     480:	1b c0       	rjmp	.+54     	; 0x4b8 <__LOCK_REGION_LENGTH__+0xb8>
     482:	80 91 2b 02 	lds	r24, 0x022B	; 0x80022b <terrainCollisionCounter.2616>
     486:	8f 5f       	subi	r24, 0xFF	; 255
     488:	80 93 2b 02 	sts	0x022B, r24	; 0x80022b <terrainCollisionCounter.2616>
     48c:	82 30       	cpi	r24, 0x02	; 2
     48e:	90 f4       	brcc	.+36     	; 0x4b4 <__LOCK_REGION_LENGTH__+0xb4>
     490:	80 91 36 02 	lds	r24, 0x0236	; 0x800236 <lives>
     494:	82 30       	cpi	r24, 0x02	; 2
     496:	58 f0       	brcs	.+22     	; 0x4ae <__LOCK_REGION_LENGTH__+0xae>
     498:	64 ea       	ldi	r22, 0xA4	; 164
     49a:	70 ed       	ldi	r23, 0xD0	; 208
     49c:	82 e8       	ldi	r24, 0x82	; 130
     49e:	93 e4       	ldi	r25, 0x43	; 67
     4a0:	1d df       	rcall	.-454    	; 0x2dc <set_PWM>
     4a2:	80 91 36 02 	lds	r24, 0x0236	; 0x800236 <lives>
     4a6:	81 50       	subi	r24, 0x01	; 1
     4a8:	80 93 36 02 	sts	0x0236, r24	; 0x800236 <lives>
     4ac:	05 c0       	rjmp	.+10     	; 0x4b8 <__LOCK_REGION_LENGTH__+0xb8>
     4ae:	d0 93 38 02 	sts	0x0238, r29	; 0x800238 <gameOverFlag>
     4b2:	02 c0       	rjmp	.+4      	; 0x4b8 <__LOCK_REGION_LENGTH__+0xb8>
     4b4:	10 92 2b 02 	sts	0x022B, r1	; 0x80022b <terrainCollisionCounter.2616>
     4b8:	0f 5f       	subi	r16, 0xFF	; 255
     4ba:	1f 4f       	sbci	r17, 0xFF	; 255
     4bc:	cf 5f       	subi	r28, 0xFF	; 255
     4be:	c0 32       	cpi	r28, 0x20	; 32
     4c0:	81 f6       	brne	.-96     	; 0x462 <__LOCK_REGION_LENGTH__+0x62>
     4c2:	cc e3       	ldi	r28, 0x3C	; 60
     4c4:	d1 e0       	ldi	r29, 0x01	; 1
     4c6:	0f e3       	ldi	r16, 0x3F	; 63
     4c8:	11 e0       	ldi	r17, 0x01	; 1
     4ca:	ff 24       	eor	r15, r15
     4cc:	f3 94       	inc	r15
     4ce:	99 91       	ld	r25, Y+
     4d0:	80 91 34 02 	lds	r24, 0x0234	; 0x800234 <player_one_location>
     4d4:	98 13       	cpse	r25, r24
     4d6:	18 c0       	rjmp	.+48     	; 0x508 <__LOCK_REGION_LENGTH__+0x108>
     4d8:	80 91 2a 02 	lds	r24, 0x022A	; 0x80022a <enemyCollisionCounter.2623>
     4dc:	82 30       	cpi	r24, 0x02	; 2
     4de:	90 f4       	brcc	.+36     	; 0x504 <__LOCK_REGION_LENGTH__+0x104>
     4e0:	80 91 36 02 	lds	r24, 0x0236	; 0x800236 <lives>
     4e4:	82 30       	cpi	r24, 0x02	; 2
     4e6:	58 f0       	brcs	.+22     	; 0x4fe <__LOCK_REGION_LENGTH__+0xfe>
     4e8:	6b e7       	ldi	r22, 0x7B	; 123
     4ea:	74 ed       	ldi	r23, 0xD4	; 212
     4ec:	82 e9       	ldi	r24, 0x92	; 146
     4ee:	93 e4       	ldi	r25, 0x43	; 67
     4f0:	f5 de       	rcall	.-534    	; 0x2dc <set_PWM>
     4f2:	80 91 36 02 	lds	r24, 0x0236	; 0x800236 <lives>
     4f6:	81 50       	subi	r24, 0x01	; 1
     4f8:	80 93 36 02 	sts	0x0236, r24	; 0x800236 <lives>
     4fc:	05 c0       	rjmp	.+10     	; 0x508 <__LOCK_REGION_LENGTH__+0x108>
     4fe:	f0 92 38 02 	sts	0x0238, r15	; 0x800238 <gameOverFlag>
     502:	02 c0       	rjmp	.+4      	; 0x508 <__LOCK_REGION_LENGTH__+0x108>
     504:	10 92 2a 02 	sts	0x022A, r1	; 0x80022a <enemyCollisionCounter.2623>
     508:	0c 17       	cp	r16, r28
     50a:	1d 07       	cpc	r17, r29
     50c:	01 f7       	brne	.-64     	; 0x4ce <__LOCK_REGION_LENGTH__+0xce>
     50e:	81 e0       	ldi	r24, 0x01	; 1
     510:	90 e0       	ldi	r25, 0x00	; 0
     512:	02 c0       	rjmp	.+4      	; 0x518 <__LOCK_REGION_LENGTH__+0x118>
     514:	80 e0       	ldi	r24, 0x00	; 0
     516:	90 e0       	ldi	r25, 0x00	; 0
     518:	df 91       	pop	r29
     51a:	cf 91       	pop	r28
     51c:	1f 91       	pop	r17
     51e:	0f 91       	pop	r16
     520:	ff 90       	pop	r15
     522:	ef 90       	pop	r14
     524:	df 90       	pop	r13
     526:	cf 90       	pop	r12
     528:	bf 90       	pop	r11
     52a:	af 90       	pop	r10
     52c:	9f 90       	pop	r9
     52e:	8f 90       	pop	r8
     530:	7f 90       	pop	r7
     532:	08 95       	ret

00000534 <PWM_on>:
     534:	80 e4       	ldi	r24, 0x40	; 64
     536:	80 93 90 00 	sts	0x0090, r24	; 0x800090 <__TEXT_REGION_LENGTH__+0x7e0090>
     53a:	8b e0       	ldi	r24, 0x0B	; 11
     53c:	80 93 91 00 	sts	0x0091, r24	; 0x800091 <__TEXT_REGION_LENGTH__+0x7e0091>
     540:	60 e0       	ldi	r22, 0x00	; 0
     542:	70 e0       	ldi	r23, 0x00	; 0
     544:	cb 01       	movw	r24, r22
     546:	ca ce       	rjmp	.-620    	; 0x2dc <set_PWM>
     548:	08 95       	ret

0000054a <GetKeypadKey>:
     54a:	8f ee       	ldi	r24, 0xEF	; 239
     54c:	88 b9       	out	0x08, r24	; 8
     54e:	00 00       	nop
     550:	30 9b       	sbis	0x06, 0	; 6
     552:	29 c0       	rjmp	.+82     	; 0x5a6 <GetKeypadKey+0x5c>
     554:	31 9b       	sbis	0x06, 1	; 6
     556:	29 c0       	rjmp	.+82     	; 0x5aa <GetKeypadKey+0x60>
     558:	32 9b       	sbis	0x06, 2	; 6
     55a:	29 c0       	rjmp	.+82     	; 0x5ae <GetKeypadKey+0x64>
     55c:	33 9b       	sbis	0x06, 3	; 6
     55e:	29 c0       	rjmp	.+82     	; 0x5b2 <GetKeypadKey+0x68>
     560:	8f ed       	ldi	r24, 0xDF	; 223
     562:	88 b9       	out	0x08, r24	; 8
     564:	00 00       	nop
     566:	30 9b       	sbis	0x06, 0	; 6
     568:	26 c0       	rjmp	.+76     	; 0x5b6 <GetKeypadKey+0x6c>
     56a:	31 9b       	sbis	0x06, 1	; 6
     56c:	26 c0       	rjmp	.+76     	; 0x5ba <GetKeypadKey+0x70>
     56e:	32 9b       	sbis	0x06, 2	; 6
     570:	26 c0       	rjmp	.+76     	; 0x5be <GetKeypadKey+0x74>
     572:	33 9b       	sbis	0x06, 3	; 6
     574:	26 c0       	rjmp	.+76     	; 0x5c2 <GetKeypadKey+0x78>
     576:	8f eb       	ldi	r24, 0xBF	; 191
     578:	88 b9       	out	0x08, r24	; 8
     57a:	00 00       	nop
     57c:	30 9b       	sbis	0x06, 0	; 6
     57e:	23 c0       	rjmp	.+70     	; 0x5c6 <GetKeypadKey+0x7c>
     580:	31 9b       	sbis	0x06, 1	; 6
     582:	23 c0       	rjmp	.+70     	; 0x5ca <GetKeypadKey+0x80>
     584:	32 9b       	sbis	0x06, 2	; 6
     586:	23 c0       	rjmp	.+70     	; 0x5ce <GetKeypadKey+0x84>
     588:	33 9b       	sbis	0x06, 3	; 6
     58a:	23 c0       	rjmp	.+70     	; 0x5d2 <GetKeypadKey+0x88>
     58c:	8f e7       	ldi	r24, 0x7F	; 127
     58e:	88 b9       	out	0x08, r24	; 8
     590:	00 00       	nop
     592:	30 9b       	sbis	0x06, 0	; 6
     594:	20 c0       	rjmp	.+64     	; 0x5d6 <GetKeypadKey+0x8c>
     596:	31 9b       	sbis	0x06, 1	; 6
     598:	20 c0       	rjmp	.+64     	; 0x5da <GetKeypadKey+0x90>
     59a:	32 9b       	sbis	0x06, 2	; 6
     59c:	20 c0       	rjmp	.+64     	; 0x5de <GetKeypadKey+0x94>
     59e:	33 9b       	sbis	0x06, 3	; 6
     5a0:	20 c0       	rjmp	.+64     	; 0x5e2 <GetKeypadKey+0x98>
     5a2:	80 e0       	ldi	r24, 0x00	; 0
     5a4:	08 95       	ret
     5a6:	80 e2       	ldi	r24, 0x20	; 32
     5a8:	08 95       	ret
     5aa:	84 e3       	ldi	r24, 0x34	; 52
     5ac:	08 95       	ret
     5ae:	87 e3       	ldi	r24, 0x37	; 55
     5b0:	08 95       	ret
     5b2:	8a e2       	ldi	r24, 0x2A	; 42
     5b4:	08 95       	ret
     5b6:	82 e3       	ldi	r24, 0x32	; 50
     5b8:	08 95       	ret
     5ba:	85 e3       	ldi	r24, 0x35	; 53
     5bc:	08 95       	ret
     5be:	88 e3       	ldi	r24, 0x38	; 56
     5c0:	08 95       	ret
     5c2:	80 e3       	ldi	r24, 0x30	; 48
     5c4:	08 95       	ret
     5c6:	83 e3       	ldi	r24, 0x33	; 51
     5c8:	08 95       	ret
     5ca:	86 e3       	ldi	r24, 0x36	; 54
     5cc:	08 95       	ret
     5ce:	89 e3       	ldi	r24, 0x39	; 57
     5d0:	08 95       	ret
     5d2:	83 e2       	ldi	r24, 0x23	; 35
     5d4:	08 95       	ret
     5d6:	81 e4       	ldi	r24, 0x41	; 65
     5d8:	08 95       	ret
     5da:	82 e4       	ldi	r24, 0x42	; 66
     5dc:	08 95       	ret
     5de:	83 e4       	ldi	r24, 0x43	; 67
     5e0:	08 95       	ret
     5e2:	84 e4       	ldi	r24, 0x44	; 68
     5e4:	08 95       	ret

000005e6 <key_tick>:
     5e6:	cf 93       	push	r28
     5e8:	df 93       	push	r29
     5ea:	ec 01       	movw	r28, r24
     5ec:	ae df       	rcall	.-164    	; 0x54a <GetKeypadKey>
     5ee:	80 93 44 01 	sts	0x0144, r24	; 0x800144 <key>
     5f2:	ce 01       	movw	r24, r28
     5f4:	df 91       	pop	r29
     5f6:	cf 91       	pop	r28
     5f8:	08 95       	ret

000005fa <moveLeft>:
     5fa:	98 2f       	mov	r25, r24
     5fc:	9f 7e       	andi	r25, 0xEF	; 239
     5fe:	91 50       	subi	r25, 0x01	; 1
     600:	9f 30       	cpi	r25, 0x0F	; 15
     602:	08 f4       	brcc	.+2      	; 0x606 <moveLeft+0xc>
     604:	81 50       	subi	r24, 0x01	; 1
     606:	08 95       	ret

00000608 <moveRight>:
     608:	8f 30       	cpi	r24, 0x0F	; 15
     60a:	10 f4       	brcc	.+4      	; 0x610 <moveRight+0x8>
     60c:	8f 5f       	subi	r24, 0xFF	; 255
     60e:	08 95       	ret
     610:	90 ef       	ldi	r25, 0xF0	; 240
     612:	98 0f       	add	r25, r24
     614:	9f 30       	cpi	r25, 0x0F	; 15
     616:	08 f4       	brcc	.+2      	; 0x61a <moveRight+0x12>
     618:	8f 5f       	subi	r24, 0xFF	; 255
     61a:	08 95       	ret

0000061c <player_one_tick>:
     61c:	00 97       	sbiw	r24, 0x00	; 0
     61e:	21 f0       	breq	.+8      	; 0x628 <player_one_tick+0xc>
     620:	81 30       	cpi	r24, 0x01	; 1
     622:	91 05       	cpc	r25, r1
     624:	31 f0       	breq	.+12     	; 0x632 <player_one_tick+0x16>
     626:	0a c0       	rjmp	.+20     	; 0x63c <player_one_tick+0x20>
     628:	80 91 39 02 	lds	r24, 0x0239	; 0x800239 <playFlag>
     62c:	81 30       	cpi	r24, 0x01	; 1
     62e:	61 f4       	brne	.+24     	; 0x648 <player_one_tick+0x2c>
     630:	10 c0       	rjmp	.+32     	; 0x652 <player_one_tick+0x36>
     632:	80 91 39 02 	lds	r24, 0x0239	; 0x800239 <playFlag>
     636:	88 23       	and	r24, r24
     638:	39 f0       	breq	.+14     	; 0x648 <player_one_tick+0x2c>
     63a:	0b c0       	rjmp	.+22     	; 0x652 <player_one_tick+0x36>
     63c:	00 97       	sbiw	r24, 0x00	; 0
     63e:	21 f0       	breq	.+8      	; 0x648 <player_one_tick+0x2c>
     640:	81 30       	cpi	r24, 0x01	; 1
     642:	91 05       	cpc	r25, r1
     644:	c1 f5       	brne	.+112    	; 0x6b6 <player_one_tick+0x9a>
     646:	05 c0       	rjmp	.+10     	; 0x652 <player_one_tick+0x36>
     648:	10 92 34 02 	sts	0x0234, r1	; 0x800234 <player_one_location>
     64c:	80 e0       	ldi	r24, 0x00	; 0
     64e:	90 e0       	ldi	r25, 0x00	; 0
     650:	08 95       	ret
     652:	80 91 44 01 	lds	r24, 0x0144	; 0x800144 <key>
     656:	82 33       	cpi	r24, 0x32	; 50
     658:	61 f4       	brne	.+24     	; 0x672 <player_one_tick+0x56>
     65a:	90 91 34 02 	lds	r25, 0x0234	; 0x800234 <player_one_location>
     65e:	80 ef       	ldi	r24, 0xF0	; 240
     660:	89 0f       	add	r24, r25
     662:	80 31       	cpi	r24, 0x10	; 16
     664:	08 f0       	brcs	.+2      	; 0x668 <player_one_tick+0x4c>
     666:	89 2f       	mov	r24, r25
     668:	80 93 34 02 	sts	0x0234, r24	; 0x800234 <player_one_location>
     66c:	81 e0       	ldi	r24, 0x01	; 1
     66e:	90 e0       	ldi	r25, 0x00	; 0
     670:	08 95       	ret
     672:	88 33       	cpi	r24, 0x38	; 56
     674:	51 f4       	brne	.+20     	; 0x68a <player_one_tick+0x6e>
     676:	80 91 34 02 	lds	r24, 0x0234	; 0x800234 <player_one_location>
     67a:	80 31       	cpi	r24, 0x10	; 16
     67c:	08 f4       	brcc	.+2      	; 0x680 <player_one_tick+0x64>
     67e:	80 5f       	subi	r24, 0xF0	; 240
     680:	80 93 34 02 	sts	0x0234, r24	; 0x800234 <player_one_location>
     684:	81 e0       	ldi	r24, 0x01	; 1
     686:	90 e0       	ldi	r25, 0x00	; 0
     688:	08 95       	ret
     68a:	84 33       	cpi	r24, 0x34	; 52
     68c:	41 f4       	brne	.+16     	; 0x69e <player_one_tick+0x82>
     68e:	80 91 34 02 	lds	r24, 0x0234	; 0x800234 <player_one_location>
     692:	b3 df       	rcall	.-154    	; 0x5fa <moveLeft>
     694:	80 93 34 02 	sts	0x0234, r24	; 0x800234 <player_one_location>
     698:	81 e0       	ldi	r24, 0x01	; 1
     69a:	90 e0       	ldi	r25, 0x00	; 0
     69c:	08 95       	ret
     69e:	86 33       	cpi	r24, 0x36	; 54
     6a0:	41 f4       	brne	.+16     	; 0x6b2 <player_one_tick+0x96>
     6a2:	80 91 34 02 	lds	r24, 0x0234	; 0x800234 <player_one_location>
     6a6:	b0 df       	rcall	.-160    	; 0x608 <moveRight>
     6a8:	80 93 34 02 	sts	0x0234, r24	; 0x800234 <player_one_location>
     6ac:	81 e0       	ldi	r24, 0x01	; 1
     6ae:	90 e0       	ldi	r25, 0x00	; 0
     6b0:	08 95       	ret
     6b2:	81 e0       	ldi	r24, 0x01	; 1
     6b4:	90 e0       	ldi	r25, 0x00	; 0
     6b6:	08 95       	ret

000006b8 <player_one_projectile_tick>:
     6b8:	bf 92       	push	r11
     6ba:	cf 92       	push	r12
     6bc:	df 92       	push	r13
     6be:	ef 92       	push	r14
     6c0:	ff 92       	push	r15
     6c2:	0f 93       	push	r16
     6c4:	1f 93       	push	r17
     6c6:	cf 93       	push	r28
     6c8:	df 93       	push	r29
     6ca:	ec 01       	movw	r28, r24
     6cc:	60 e0       	ldi	r22, 0x00	; 0
     6ce:	70 e0       	ldi	r23, 0x00	; 0
     6d0:	cb 01       	movw	r24, r22
     6d2:	04 de       	rcall	.-1016   	; 0x2dc <set_PWM>
     6d4:	20 97       	sbiw	r28, 0x00	; 0
     6d6:	21 f0       	breq	.+8      	; 0x6e0 <player_one_projectile_tick+0x28>
     6d8:	c1 30       	cpi	r28, 0x01	; 1
     6da:	d1 05       	cpc	r29, r1
     6dc:	31 f0       	breq	.+12     	; 0x6ea <player_one_projectile_tick+0x32>
     6de:	0a c0       	rjmp	.+20     	; 0x6f4 <player_one_projectile_tick+0x3c>
     6e0:	80 91 39 02 	lds	r24, 0x0239	; 0x800239 <playFlag>
     6e4:	81 30       	cpi	r24, 0x01	; 1
     6e6:	69 f4       	brne	.+26     	; 0x702 <player_one_projectile_tick+0x4a>
     6e8:	18 c0       	rjmp	.+48     	; 0x71a <player_one_projectile_tick+0x62>
     6ea:	80 91 39 02 	lds	r24, 0x0239	; 0x800239 <playFlag>
     6ee:	88 23       	and	r24, r24
     6f0:	41 f0       	breq	.+16     	; 0x702 <player_one_projectile_tick+0x4a>
     6f2:	13 c0       	rjmp	.+38     	; 0x71a <player_one_projectile_tick+0x62>
     6f4:	20 97       	sbiw	r28, 0x00	; 0
     6f6:	29 f0       	breq	.+10     	; 0x702 <player_one_projectile_tick+0x4a>
     6f8:	c1 30       	cpi	r28, 0x01	; 1
     6fa:	d1 05       	cpc	r29, r1
     6fc:	09 f0       	breq	.+2      	; 0x700 <player_one_projectile_tick+0x48>
     6fe:	5c c0       	rjmp	.+184    	; 0x7b8 <player_one_projectile_tick+0x100>
     700:	0c c0       	rjmp	.+24     	; 0x71a <player_one_projectile_tick+0x62>
     702:	ef e3       	ldi	r30, 0x3F	; 63
     704:	f1 e0       	ldi	r31, 0x01	; 1
     706:	8f ef       	ldi	r24, 0xFF	; 255
     708:	80 83       	st	Z, r24
     70a:	81 83       	std	Z+1, r24	; 0x01
     70c:	82 83       	std	Z+2, r24	; 0x02
     70e:	83 83       	std	Z+3, r24	; 0x03
     710:	84 83       	std	Z+4, r24	; 0x04
     712:	15 b8       	out	0x05, r1	; 5
     714:	c0 e0       	ldi	r28, 0x00	; 0
     716:	d0 e0       	ldi	r29, 0x00	; 0
     718:	4f c0       	rjmp	.+158    	; 0x7b8 <player_one_projectile_tick+0x100>
     71a:	80 91 44 01 	lds	r24, 0x0144	; 0x800144 <key>
     71e:	85 33       	cpi	r24, 0x35	; 53
     720:	09 f0       	breq	.+2      	; 0x724 <player_one_projectile_tick+0x6c>
     722:	3e c0       	rjmp	.+124    	; 0x7a0 <player_one_projectile_tick+0xe8>
     724:	60 e0       	ldi	r22, 0x00	; 0
     726:	70 ed       	ldi	r23, 0xD0	; 208
     728:	82 e0       	ldi	r24, 0x02	; 2
     72a:	94 e4       	ldi	r25, 0x44	; 68
     72c:	d7 dd       	rcall	.-1106   	; 0x2dc <set_PWM>
     72e:	80 91 3f 01 	lds	r24, 0x013F	; 0x80013f <player_one_projectile_location>
     732:	8f 3f       	cpi	r24, 0xFF	; 255
     734:	49 f0       	breq	.+18     	; 0x748 <player_one_projectile_tick+0x90>
     736:	e0 e4       	ldi	r30, 0x40	; 64
     738:	f1 e0       	ldi	r31, 0x01	; 1
     73a:	81 e0       	ldi	r24, 0x01	; 1
     73c:	90 e0       	ldi	r25, 0x00	; 0
     73e:	ac 01       	movw	r20, r24
     740:	21 91       	ld	r18, Z+
     742:	2f 3f       	cpi	r18, 0xFF	; 255
     744:	51 f4       	brne	.+20     	; 0x75a <player_one_projectile_tick+0xa2>
     746:	02 c0       	rjmp	.+4      	; 0x74c <player_one_projectile_tick+0x94>
     748:	40 e0       	ldi	r20, 0x00	; 0
     74a:	50 e0       	ldi	r21, 0x00	; 0
     74c:	fa 01       	movw	r30, r20
     74e:	e1 5c       	subi	r30, 0xC1	; 193
     750:	fe 4f       	sbci	r31, 0xFE	; 254
     752:	80 91 34 02 	lds	r24, 0x0234	; 0x800234 <player_one_location>
     756:	80 83       	st	Z, r24
     758:	23 c0       	rjmp	.+70     	; 0x7a0 <player_one_projectile_tick+0xe8>
     75a:	01 96       	adiw	r24, 0x01	; 1
     75c:	85 30       	cpi	r24, 0x05	; 5
     75e:	91 05       	cpc	r25, r1
     760:	71 f7       	brne	.-36     	; 0x73e <player_one_projectile_tick+0x86>
     762:	1e c0       	rjmp	.+60     	; 0x7a0 <player_one_projectile_tick+0xe8>
     764:	88 81       	ld	r24, Y
     766:	8f 3f       	cpi	r24, 0xFF	; 255
     768:	41 f0       	breq	.+16     	; 0x77a <player_one_projectile_tick+0xc2>
     76a:	98 2f       	mov	r25, r24
     76c:	9f 7e       	andi	r25, 0xEF	; 239
     76e:	9f 30       	cpi	r25, 0x0F	; 15
     770:	11 f4       	brne	.+4      	; 0x776 <player_one_projectile_tick+0xbe>
     772:	b8 82       	st	Y, r11
     774:	02 c0       	rjmp	.+4      	; 0x77a <player_one_projectile_tick+0xc2>
     776:	48 df       	rcall	.-368    	; 0x608 <moveRight>
     778:	88 83       	st	Y, r24
     77a:	21 96       	adiw	r28, 0x01	; 1
     77c:	ce 15       	cp	r28, r14
     77e:	df 05       	cpc	r29, r15
     780:	89 f7       	brne	.-30     	; 0x764 <player_one_projectile_tick+0xac>
     782:	90 e0       	ldi	r25, 0x00	; 0
     784:	f8 01       	movw	r30, r16
     786:	81 91       	ld	r24, Z+
     788:	8f 01       	movw	r16, r30
     78a:	8f 3f       	cpi	r24, 0xFF	; 255
     78c:	11 f4       	brne	.+4      	; 0x792 <player_one_projectile_tick+0xda>
     78e:	99 0f       	add	r25, r25
     790:	9f 5f       	subi	r25, 0xFF	; 255
     792:	0e 15       	cp	r16, r14
     794:	1f 05       	cpc	r17, r15
     796:	b1 f7       	brne	.-20     	; 0x784 <player_one_projectile_tick+0xcc>
     798:	95 b9       	out	0x05, r25	; 5
     79a:	c1 e0       	ldi	r28, 0x01	; 1
     79c:	d0 e0       	ldi	r29, 0x00	; 0
     79e:	0c c0       	rjmp	.+24     	; 0x7b8 <player_one_projectile_tick+0x100>
     7a0:	0f e3       	ldi	r16, 0x3F	; 63
     7a2:	11 e0       	ldi	r17, 0x01	; 1
     7a4:	0f 2e       	mov	r0, r31
     7a6:	f4 e4       	ldi	r31, 0x44	; 68
     7a8:	ef 2e       	mov	r14, r31
     7aa:	f1 e0       	ldi	r31, 0x01	; 1
     7ac:	ff 2e       	mov	r15, r31
     7ae:	f0 2d       	mov	r31, r0
     7b0:	e8 01       	movw	r28, r16
     7b2:	bb 24       	eor	r11, r11
     7b4:	ba 94       	dec	r11
     7b6:	d6 cf       	rjmp	.-84     	; 0x764 <player_one_projectile_tick+0xac>
     7b8:	ce 01       	movw	r24, r28
     7ba:	df 91       	pop	r29
     7bc:	cf 91       	pop	r28
     7be:	1f 91       	pop	r17
     7c0:	0f 91       	pop	r16
     7c2:	ff 90       	pop	r15
     7c4:	ef 90       	pop	r14
     7c6:	df 90       	pop	r13
     7c8:	cf 90       	pop	r12
     7ca:	bf 90       	pop	r11
     7cc:	08 95       	ret

000007ce <enemyMoveLeft>:
     7ce:	98 2f       	mov	r25, r24
     7d0:	9f 7e       	andi	r25, 0xEF	; 239
     7d2:	29 f0       	breq	.+10     	; 0x7de <enemyMoveLeft+0x10>
     7d4:	91 50       	subi	r25, 0x01	; 1
     7d6:	9f 30       	cpi	r25, 0x0F	; 15
     7d8:	18 f4       	brcc	.+6      	; 0x7e0 <enemyMoveLeft+0x12>
     7da:	81 50       	subi	r24, 0x01	; 1
     7dc:	08 95       	ret
     7de:	8f ef       	ldi	r24, 0xFF	; 255
     7e0:	08 95       	ret

000007e2 <enemy_tick>:
     7e2:	cf 92       	push	r12
     7e4:	df 92       	push	r13
     7e6:	ef 92       	push	r14
     7e8:	ff 92       	push	r15
     7ea:	0f 93       	push	r16
     7ec:	1f 93       	push	r17
     7ee:	cf 93       	push	r28
     7f0:	df 93       	push	r29
     7f2:	ec 01       	movw	r28, r24
     7f4:	29 d6       	rcall	.+3154   	; 0x1448 <rand>
     7f6:	20 97       	sbiw	r28, 0x00	; 0
     7f8:	21 f0       	breq	.+8      	; 0x802 <enemy_tick+0x20>
     7fa:	c1 30       	cpi	r28, 0x01	; 1
     7fc:	d1 05       	cpc	r29, r1
     7fe:	31 f0       	breq	.+12     	; 0x80c <enemy_tick+0x2a>
     800:	0a c0       	rjmp	.+20     	; 0x816 <enemy_tick+0x34>
     802:	20 91 39 02 	lds	r18, 0x0239	; 0x800239 <playFlag>
     806:	21 30       	cpi	r18, 0x01	; 1
     808:	69 f4       	brne	.+26     	; 0x824 <enemy_tick+0x42>
     80a:	15 c0       	rjmp	.+42     	; 0x836 <enemy_tick+0x54>
     80c:	20 91 39 02 	lds	r18, 0x0239	; 0x800239 <playFlag>
     810:	22 23       	and	r18, r18
     812:	41 f0       	breq	.+16     	; 0x824 <enemy_tick+0x42>
     814:	10 c0       	rjmp	.+32     	; 0x836 <enemy_tick+0x54>
     816:	20 97       	sbiw	r28, 0x00	; 0
     818:	29 f0       	breq	.+10     	; 0x824 <enemy_tick+0x42>
     81a:	c1 30       	cpi	r28, 0x01	; 1
     81c:	d1 05       	cpc	r29, r1
     81e:	09 f0       	breq	.+2      	; 0x822 <enemy_tick+0x40>
     820:	77 c0       	rjmp	.+238    	; 0x910 <enemy_tick+0x12e>
     822:	09 c0       	rjmp	.+18     	; 0x836 <enemy_tick+0x54>
     824:	ec e3       	ldi	r30, 0x3C	; 60
     826:	f1 e0       	ldi	r31, 0x01	; 1
     828:	8f ef       	ldi	r24, 0xFF	; 255
     82a:	80 83       	st	Z, r24
     82c:	81 83       	std	Z+1, r24	; 0x01
     82e:	82 83       	std	Z+2, r24	; 0x02
     830:	c0 e0       	ldi	r28, 0x00	; 0
     832:	d0 e0       	ldi	r29, 0x00	; 0
     834:	6d c0       	rjmp	.+218    	; 0x910 <enemy_tick+0x12e>
     836:	81 70       	andi	r24, 0x01	; 1
     838:	90 78       	andi	r25, 0x80	; 128
     83a:	99 23       	and	r25, r25
     83c:	24 f4       	brge	.+8      	; 0x846 <enemy_tick+0x64>
     83e:	01 97       	sbiw	r24, 0x01	; 1
     840:	8e 6f       	ori	r24, 0xFE	; 254
     842:	9f 6f       	ori	r25, 0xFF	; 255
     844:	01 96       	adiw	r24, 0x01	; 1
     846:	81 30       	cpi	r24, 0x01	; 1
     848:	09 f0       	breq	.+2      	; 0x84c <enemy_tick+0x6a>
     84a:	54 c0       	rjmp	.+168    	; 0x8f4 <enemy_tick+0x112>
     84c:	cc e3       	ldi	r28, 0x3C	; 60
     84e:	d1 e0       	ldi	r29, 0x01	; 1
     850:	0f e3       	ldi	r16, 0x3F	; 63
     852:	11 e0       	ldi	r17, 0x01	; 1
     854:	0f 2e       	mov	r0, r31
     856:	ff e0       	ldi	r31, 0x0F	; 15
     858:	cf 2e       	mov	r12, r31
     85a:	f0 2d       	mov	r31, r0
     85c:	0f 2e       	mov	r0, r31
     85e:	ff e1       	ldi	r31, 0x1F	; 31
     860:	df 2e       	mov	r13, r31
     862:	f0 2d       	mov	r31, r0
     864:	7e 01       	movw	r14, r28
     866:	88 81       	ld	r24, Y
     868:	8f 3f       	cpi	r24, 0xFF	; 255
     86a:	a9 f4       	brne	.+42     	; 0x896 <enemy_tick+0xb4>
     86c:	ed d5       	rcall	.+3034   	; 0x1448 <rand>
     86e:	81 70       	andi	r24, 0x01	; 1
     870:	90 78       	andi	r25, 0x80	; 128
     872:	99 23       	and	r25, r25
     874:	24 f4       	brge	.+8      	; 0x87e <enemy_tick+0x9c>
     876:	01 97       	sbiw	r24, 0x01	; 1
     878:	8e 6f       	ori	r24, 0xFE	; 254
     87a:	9f 6f       	ori	r25, 0xFF	; 255
     87c:	01 96       	adiw	r24, 0x01	; 1
     87e:	99 27       	eor	r25, r25
     880:	81 30       	cpi	r24, 0x01	; 1
     882:	91 05       	cpc	r25, r1
     884:	19 f0       	breq	.+6      	; 0x88c <enemy_tick+0xaa>
     886:	02 97       	sbiw	r24, 0x02	; 2
     888:	21 f0       	breq	.+8      	; 0x892 <enemy_tick+0xb0>
     88a:	05 c0       	rjmp	.+10     	; 0x896 <enemy_tick+0xb4>
     88c:	f7 01       	movw	r30, r14
     88e:	c0 82       	st	Z, r12
     890:	02 c0       	rjmp	.+4      	; 0x896 <enemy_tick+0xb4>
     892:	f7 01       	movw	r30, r14
     894:	d0 82       	st	Z, r13
     896:	21 96       	adiw	r28, 0x01	; 1
     898:	c0 17       	cp	r28, r16
     89a:	d1 07       	cpc	r29, r17
     89c:	19 f7       	brne	.-58     	; 0x864 <enemy_tick+0x82>
     89e:	2a c0       	rjmp	.+84     	; 0x8f4 <enemy_tick+0x112>
     8a0:	8e 01       	movw	r16, r28
     8a2:	88 81       	ld	r24, Y
     8a4:	8f 3f       	cpi	r24, 0xFF	; 255
     8a6:	f9 f0       	breq	.+62     	; 0x8e6 <enemy_tick+0x104>
     8a8:	cf d5       	rcall	.+2974   	; 0x1448 <rand>
     8aa:	b6 01       	movw	r22, r12
     8ac:	34 d5       	rcall	.+2664   	; 0x1316 <__divmodhi4>
     8ae:	99 27       	eor	r25, r25
     8b0:	81 30       	cpi	r24, 0x01	; 1
     8b2:	91 05       	cpc	r25, r1
     8b4:	71 f0       	breq	.+28     	; 0x8d2 <enemy_tick+0xf0>
     8b6:	82 30       	cpi	r24, 0x02	; 2
     8b8:	91 05       	cpc	r25, r1
     8ba:	91 f0       	breq	.+36     	; 0x8e0 <enemy_tick+0xfe>
     8bc:	89 2b       	or	r24, r25
     8be:	99 f4       	brne	.+38     	; 0x8e6 <enemy_tick+0x104>
     8c0:	98 81       	ld	r25, Y
     8c2:	80 ef       	ldi	r24, 0xF0	; 240
     8c4:	89 0f       	add	r24, r25
     8c6:	80 31       	cpi	r24, 0x10	; 16
     8c8:	08 f0       	brcs	.+2      	; 0x8cc <enemy_tick+0xea>
     8ca:	89 2f       	mov	r24, r25
     8cc:	f8 01       	movw	r30, r16
     8ce:	80 83       	st	Z, r24
     8d0:	0a c0       	rjmp	.+20     	; 0x8e6 <enemy_tick+0x104>
     8d2:	88 81       	ld	r24, Y
     8d4:	80 31       	cpi	r24, 0x10	; 16
     8d6:	08 f4       	brcc	.+2      	; 0x8da <enemy_tick+0xf8>
     8d8:	80 5f       	subi	r24, 0xF0	; 240
     8da:	f8 01       	movw	r30, r16
     8dc:	80 83       	st	Z, r24
     8de:	03 c0       	rjmp	.+6      	; 0x8e6 <enemy_tick+0x104>
     8e0:	88 81       	ld	r24, Y
     8e2:	75 df       	rcall	.-278    	; 0x7ce <enemyMoveLeft>
     8e4:	88 83       	st	Y, r24
     8e6:	21 96       	adiw	r28, 0x01	; 1
     8e8:	ec 16       	cp	r14, r28
     8ea:	fd 06       	cpc	r15, r29
     8ec:	c9 f6       	brne	.-78     	; 0x8a0 <enemy_tick+0xbe>
     8ee:	c1 e0       	ldi	r28, 0x01	; 1
     8f0:	d0 e0       	ldi	r29, 0x00	; 0
     8f2:	0e c0       	rjmp	.+28     	; 0x910 <enemy_tick+0x12e>
     8f4:	cc e3       	ldi	r28, 0x3C	; 60
     8f6:	d1 e0       	ldi	r29, 0x01	; 1
     8f8:	0f 2e       	mov	r0, r31
     8fa:	ff e3       	ldi	r31, 0x3F	; 63
     8fc:	ef 2e       	mov	r14, r31
     8fe:	f1 e0       	ldi	r31, 0x01	; 1
     900:	ff 2e       	mov	r15, r31
     902:	f0 2d       	mov	r31, r0
     904:	0f 2e       	mov	r0, r31
     906:	f3 e0       	ldi	r31, 0x03	; 3
     908:	cf 2e       	mov	r12, r31
     90a:	d1 2c       	mov	r13, r1
     90c:	f0 2d       	mov	r31, r0
     90e:	c8 cf       	rjmp	.-112    	; 0x8a0 <enemy_tick+0xbe>
     910:	ce 01       	movw	r24, r28
     912:	df 91       	pop	r29
     914:	cf 91       	pop	r28
     916:	1f 91       	pop	r17
     918:	0f 91       	pop	r16
     91a:	ff 90       	pop	r15
     91c:	ef 90       	pop	r14
     91e:	df 90       	pop	r13
     920:	cf 90       	pop	r12
     922:	08 95       	ret

00000924 <LCD_build>:
     924:	0f 93       	push	r16
     926:	1f 93       	push	r17
     928:	cf 93       	push	r28
     92a:	df 93       	push	r29
     92c:	88 30       	cpi	r24, 0x08	; 8
     92e:	70 f4       	brcc	.+28     	; 0x94c <LCD_build+0x28>
     930:	8b 01       	movw	r16, r22
     932:	88 0f       	add	r24, r24
     934:	88 0f       	add	r24, r24
     936:	88 0f       	add	r24, r24
     938:	80 5c       	subi	r24, 0xC0	; 192
     93a:	8b dc       	rcall	.-1770   	; 0x252 <LCD_WriteCommand>
     93c:	e8 01       	movw	r28, r16
     93e:	08 5f       	subi	r16, 0xF8	; 248
     940:	1f 4f       	sbci	r17, 0xFF	; 255
     942:	89 91       	ld	r24, Y+
     944:	a9 dc       	rcall	.-1710   	; 0x298 <LCD_WriteData>
     946:	c0 17       	cp	r28, r16
     948:	d1 07       	cpc	r29, r17
     94a:	d9 f7       	brne	.-10     	; 0x942 <LCD_build+0x1e>
     94c:	df 91       	pop	r29
     94e:	cf 91       	pop	r28
     950:	1f 91       	pop	r17
     952:	0f 91       	pop	r16
     954:	08 95       	ret

00000956 <loadPlayerOneSprite>:
     956:	64 e1       	ldi	r22, 0x14	; 20
     958:	71 e0       	ldi	r23, 0x01	; 1
     95a:	80 e0       	ldi	r24, 0x00	; 0
     95c:	e3 cf       	rjmp	.-58     	; 0x924 <LCD_build>
     95e:	08 95       	ret

00000960 <loadTerrainSprite>:
     960:	6c e0       	ldi	r22, 0x0C	; 12
     962:	71 e0       	ldi	r23, 0x01	; 1
     964:	81 e0       	ldi	r24, 0x01	; 1
     966:	de cf       	rjmp	.-68     	; 0x924 <LCD_build>
     968:	08 95       	ret

0000096a <loadEnemySprite>:
     96a:	64 e0       	ldi	r22, 0x04	; 4
     96c:	71 e0       	ldi	r23, 0x01	; 1
     96e:	82 e0       	ldi	r24, 0x02	; 2
     970:	d9 cf       	rjmp	.-78     	; 0x924 <LCD_build>
     972:	08 95       	ret

00000974 <displayPlayerOneSprite>:
     974:	80 e0       	ldi	r24, 0x00	; 0
     976:	90 cc       	rjmp	.-1760   	; 0x298 <LCD_WriteData>
     978:	08 95       	ret

0000097a <displayTerrainSprite>:
     97a:	81 e0       	ldi	r24, 0x01	; 1
     97c:	8d cc       	rjmp	.-1766   	; 0x298 <LCD_WriteData>
     97e:	08 95       	ret

00000980 <displayEnemySprite>:
     980:	82 e0       	ldi	r24, 0x02	; 2
     982:	8a cc       	rjmp	.-1772   	; 0x298 <LCD_WriteData>
     984:	08 95       	ret

00000986 <transmit_data>:
     986:	40 e0       	ldi	r20, 0x00	; 0
     988:	50 e0       	ldi	r21, 0x00	; 0
     98a:	e0 e2       	ldi	r30, 0x20	; 32
     98c:	68 2f       	mov	r22, r24
     98e:	70 e0       	ldi	r23, 0x00	; 0
     990:	e2 b9       	out	0x02, r30	; 2
     992:	92 b1       	in	r25, 0x02	; 2
     994:	9b 01       	movw	r18, r22
     996:	04 2e       	mov	r0, r20
     998:	02 c0       	rjmp	.+4      	; 0x99e <transmit_data+0x18>
     99a:	35 95       	asr	r19
     99c:	27 95       	ror	r18
     99e:	0a 94       	dec	r0
     9a0:	e2 f7       	brpl	.-8      	; 0x99a <transmit_data+0x14>
     9a2:	21 70       	andi	r18, 0x01	; 1
     9a4:	33 27       	eor	r19, r19
     9a6:	22 0f       	add	r18, r18
     9a8:	33 1f       	adc	r19, r19
     9aa:	22 0f       	add	r18, r18
     9ac:	33 1f       	adc	r19, r19
     9ae:	29 2b       	or	r18, r25
     9b0:	22 b9       	out	0x02, r18	; 2
     9b2:	13 9a       	sbi	0x02, 3	; 2
     9b4:	4f 5f       	subi	r20, 0xFF	; 255
     9b6:	5f 4f       	sbci	r21, 0xFF	; 255
     9b8:	48 30       	cpi	r20, 0x08	; 8
     9ba:	51 05       	cpc	r21, r1
     9bc:	49 f7       	brne	.-46     	; 0x990 <transmit_data+0xa>
     9be:	14 9a       	sbi	0x02, 4	; 2
     9c0:	12 b8       	out	0x02, r1	; 2
     9c2:	08 95       	ret

000009c4 <displayLives>:
     9c4:	90 e0       	ldi	r25, 0x00	; 0
     9c6:	8a 30       	cpi	r24, 0x0A	; 10
     9c8:	91 05       	cpc	r25, r1
     9ca:	58 f5       	brcc	.+86     	; 0xa22 <displayLives+0x5e>
     9cc:	fc 01       	movw	r30, r24
     9ce:	ea 5b       	subi	r30, 0xBA	; 186
     9d0:	ff 4f       	sbci	r31, 0xFF	; 255
     9d2:	d6 c4       	rjmp	.+2476   	; 0x1380 <__tablejump2__>
     9d4:	8f e3       	ldi	r24, 0x3F	; 63
     9d6:	80 93 2f 02 	sts	0x022F, r24	; 0x80022f <display.2399>
     9da:	23 c0       	rjmp	.+70     	; 0xa22 <displayLives+0x5e>
     9dc:	86 e0       	ldi	r24, 0x06	; 6
     9de:	80 93 2f 02 	sts	0x022F, r24	; 0x80022f <display.2399>
     9e2:	1f c0       	rjmp	.+62     	; 0xa22 <displayLives+0x5e>
     9e4:	8b e5       	ldi	r24, 0x5B	; 91
     9e6:	80 93 2f 02 	sts	0x022F, r24	; 0x80022f <display.2399>
     9ea:	1b c0       	rjmp	.+54     	; 0xa22 <displayLives+0x5e>
     9ec:	8f e4       	ldi	r24, 0x4F	; 79
     9ee:	80 93 2f 02 	sts	0x022F, r24	; 0x80022f <display.2399>
     9f2:	17 c0       	rjmp	.+46     	; 0xa22 <displayLives+0x5e>
     9f4:	86 e6       	ldi	r24, 0x66	; 102
     9f6:	80 93 2f 02 	sts	0x022F, r24	; 0x80022f <display.2399>
     9fa:	13 c0       	rjmp	.+38     	; 0xa22 <displayLives+0x5e>
     9fc:	8d e6       	ldi	r24, 0x6D	; 109
     9fe:	80 93 2f 02 	sts	0x022F, r24	; 0x80022f <display.2399>
     a02:	0f c0       	rjmp	.+30     	; 0xa22 <displayLives+0x5e>
     a04:	8d e7       	ldi	r24, 0x7D	; 125
     a06:	80 93 2f 02 	sts	0x022F, r24	; 0x80022f <display.2399>
     a0a:	0b c0       	rjmp	.+22     	; 0xa22 <displayLives+0x5e>
     a0c:	87 e0       	ldi	r24, 0x07	; 7
     a0e:	80 93 2f 02 	sts	0x022F, r24	; 0x80022f <display.2399>
     a12:	07 c0       	rjmp	.+14     	; 0xa22 <displayLives+0x5e>
     a14:	8f e7       	ldi	r24, 0x7F	; 127
     a16:	80 93 2f 02 	sts	0x022F, r24	; 0x80022f <display.2399>
     a1a:	03 c0       	rjmp	.+6      	; 0xa22 <displayLives+0x5e>
     a1c:	87 e6       	ldi	r24, 0x67	; 103
     a1e:	80 93 2f 02 	sts	0x022F, r24	; 0x80022f <display.2399>
     a22:	80 91 2f 02 	lds	r24, 0x022F	; 0x80022f <display.2399>
     a26:	80 95       	com	r24
     a28:	ae cf       	rjmp	.-164    	; 0x986 <transmit_data>
     a2a:	08 95       	ret

00000a2c <clearLives>:
     a2c:	8f ef       	ldi	r24, 0xFF	; 255
     a2e:	ab cf       	rjmp	.-170    	; 0x986 <transmit_data>
     a30:	08 95       	ret

00000a32 <lcd_display_tick>:
     a32:	ef 92       	push	r14
     a34:	ff 92       	push	r15
     a36:	0f 93       	push	r16
     a38:	1f 93       	push	r17
     a3a:	cf 93       	push	r28
     a3c:	df 93       	push	r29
     a3e:	81 30       	cpi	r24, 0x01	; 1
     a40:	91 05       	cpc	r25, r1
     a42:	51 f0       	breq	.+20     	; 0xa58 <lcd_display_tick+0x26>
     a44:	82 30       	cpi	r24, 0x02	; 2
     a46:	91 05       	cpc	r25, r1
     a48:	a9 f0       	breq	.+42     	; 0xa74 <lcd_display_tick+0x42>
     a4a:	00 97       	sbiw	r24, 0x00	; 0
     a4c:	e1 f4       	brne	.+56     	; 0xa86 <lcd_display_tick+0x54>
     a4e:	80 91 39 02 	lds	r24, 0x0239	; 0x800239 <playFlag>
     a52:	81 30       	cpi	r24, 0x01	; 1
     a54:	11 f5       	brne	.+68     	; 0xa9a <lcd_display_tick+0x68>
     a56:	92 c0       	rjmp	.+292    	; 0xb7c <lcd_display_tick+0x14a>
     a58:	80 91 38 02 	lds	r24, 0x0238	; 0x800238 <gameOverFlag>
     a5c:	81 11       	cpse	r24, r1
     a5e:	04 c0       	rjmp	.+8      	; 0xa68 <lcd_display_tick+0x36>
     a60:	80 91 39 02 	lds	r24, 0x0239	; 0x800239 <playFlag>
     a64:	88 23       	and	r24, r24
     a66:	c9 f0       	breq	.+50     	; 0xa9a <lcd_display_tick+0x68>
     a68:	80 91 39 02 	lds	r24, 0x0239	; 0x800239 <playFlag>
     a6c:	81 30       	cpi	r24, 0x01	; 1
     a6e:	09 f4       	brne	.+2      	; 0xa72 <lcd_display_tick+0x40>
     a70:	85 c0       	rjmp	.+266    	; 0xb7c <lcd_display_tick+0x14a>
     a72:	25 c0       	rjmp	.+74     	; 0xabe <lcd_display_tick+0x8c>
     a74:	80 91 38 02 	lds	r24, 0x0238	; 0x800238 <gameOverFlag>
     a78:	81 30       	cpi	r24, 0x01	; 1
     a7a:	09 f1       	breq	.+66     	; 0xabe <lcd_display_tick+0x8c>
     a7c:	80 91 39 02 	lds	r24, 0x0239	; 0x800239 <playFlag>
     a80:	88 23       	and	r24, r24
     a82:	59 f0       	breq	.+22     	; 0xa9a <lcd_display_tick+0x68>
     a84:	7b c0       	rjmp	.+246    	; 0xb7c <lcd_display_tick+0x14a>
     a86:	81 30       	cpi	r24, 0x01	; 1
     a88:	91 05       	cpc	r25, r1
     a8a:	c9 f0       	breq	.+50     	; 0xabe <lcd_display_tick+0x8c>
     a8c:	82 30       	cpi	r24, 0x02	; 2
     a8e:	91 05       	cpc	r25, r1
     a90:	09 f4       	brne	.+2      	; 0xa94 <lcd_display_tick+0x62>
     a92:	74 c0       	rjmp	.+232    	; 0xb7c <lcd_display_tick+0x14a>
     a94:	00 97       	sbiw	r24, 0x00	; 0
     a96:	09 f0       	breq	.+2      	; 0xa9a <lcd_display_tick+0x68>
     a98:	d8 c0       	rjmp	.+432    	; 0xc4a <lcd_display_tick+0x218>
     a9a:	01 e9       	ldi	r16, 0x91	; 145
     a9c:	11 e0       	ldi	r17, 0x01	; 1
     a9e:	c0 e0       	ldi	r28, 0x00	; 0
     aa0:	cf 5f       	subi	r28, 0xFF	; 255
     aa2:	8c 2f       	mov	r24, r28
     aa4:	e2 db       	rcall	.-2108   	; 0x26a <LCD_Cursor>
     aa6:	f8 01       	movw	r30, r16
     aa8:	81 91       	ld	r24, Z+
     aaa:	8f 01       	movw	r16, r30
     aac:	f5 db       	rcall	.-2070   	; 0x298 <LCD_WriteData>
     aae:	80 e0       	ldi	r24, 0x00	; 0
     ab0:	dc db       	rcall	.-2120   	; 0x26a <LCD_Cursor>
     ab2:	c0 32       	cpi	r28, 0x20	; 32
     ab4:	a9 f7       	brne	.-22     	; 0xaa0 <lcd_display_tick+0x6e>
     ab6:	ba df       	rcall	.-140    	; 0xa2c <clearLives>
     ab8:	80 e0       	ldi	r24, 0x00	; 0
     aba:	90 e0       	ldi	r25, 0x00	; 0
     abc:	c6 c0       	rjmp	.+396    	; 0xc4a <lcd_display_tick+0x218>
     abe:	d2 db       	rcall	.-2140   	; 0x264 <LCD_ClearScreen>
     ac0:	69 e5       	ldi	r22, 0x59	; 89
     ac2:	71 e0       	ldi	r23, 0x01	; 1
     ac4:	81 e0       	ldi	r24, 0x01	; 1
     ac6:	f1 db       	rcall	.-2078   	; 0x2aa <LCD_DisplayString>
     ac8:	80 91 37 02 	lds	r24, 0x0237	; 0x800237 <score>
     acc:	dd ec       	ldi	r29, 0xCD	; 205
     ace:	8d 9f       	mul	r24, r29
     ad0:	c1 2d       	mov	r28, r1
     ad2:	11 24       	eor	r1, r1
     ad4:	c6 95       	lsr	r28
     ad6:	c6 95       	lsr	r28
     ad8:	c6 95       	lsr	r28
     ada:	cc 0f       	add	r28, r28
     adc:	9c 2f       	mov	r25, r28
     ade:	99 0f       	add	r25, r25
     ae0:	99 0f       	add	r25, r25
     ae2:	c9 0f       	add	r28, r25
     ae4:	f8 2f       	mov	r31, r24
     ae6:	fc 1b       	sub	r31, r28
     ae8:	cf 2f       	mov	r28, r31
     aea:	f0 93 2e 02 	sts	0x022E, r31	; 0x80022e <ones.2457>
     aee:	8f 1b       	sub	r24, r31
     af0:	99 e2       	ldi	r25, 0x29	; 41
     af2:	89 9f       	mul	r24, r25
     af4:	91 2d       	mov	r25, r1
     af6:	11 24       	eor	r1, r1
     af8:	92 95       	swap	r25
     afa:	9f 70       	andi	r25, 0x0F	; 15
     afc:	38 2f       	mov	r19, r24
     afe:	24 e6       	ldi	r18, 0x64	; 100
     b00:	92 9f       	mul	r25, r18
     b02:	30 19       	sub	r19, r0
     b04:	11 24       	eor	r1, r1
     b06:	3d 9f       	mul	r19, r29
     b08:	d1 2d       	mov	r29, r1
     b0a:	11 24       	eor	r1, r1
     b0c:	d6 95       	lsr	r29
     b0e:	d6 95       	lsr	r29
     b10:	d6 95       	lsr	r29
     b12:	d0 93 2d 02 	sts	0x022D, r29	; 0x80022d <tens.2456>
     b16:	8d 1b       	sub	r24, r29
     b18:	90 e0       	ldi	r25, 0x00	; 0
     b1a:	68 ee       	ldi	r22, 0xE8	; 232
     b1c:	73 e0       	ldi	r23, 0x03	; 3
     b1e:	fb d3       	rcall	.+2038   	; 0x1316 <__divmodhi4>
     b20:	64 e6       	ldi	r22, 0x64	; 100
     b22:	70 e0       	ldi	r23, 0x00	; 0
     b24:	f8 d3       	rcall	.+2032   	; 0x1316 <__divmodhi4>
     b26:	16 2f       	mov	r17, r22
     b28:	60 93 2c 02 	sts	0x022C, r22	; 0x80022c <hundreds.2455>
     b2c:	88 e0       	ldi	r24, 0x08	; 8
     b2e:	9d db       	rcall	.-2246   	; 0x26a <LCD_Cursor>
     b30:	80 e3       	ldi	r24, 0x30	; 48
     b32:	81 0f       	add	r24, r17
     b34:	b1 db       	rcall	.-2206   	; 0x298 <LCD_WriteData>
     b36:	89 e0       	ldi	r24, 0x09	; 9
     b38:	98 db       	rcall	.-2256   	; 0x26a <LCD_Cursor>
     b3a:	80 e3       	ldi	r24, 0x30	; 48
     b3c:	8d 0f       	add	r24, r29
     b3e:	ac db       	rcall	.-2216   	; 0x298 <LCD_WriteData>
     b40:	8a e0       	ldi	r24, 0x0A	; 10
     b42:	93 db       	rcall	.-2266   	; 0x26a <LCD_Cursor>
     b44:	80 e3       	ldi	r24, 0x30	; 48
     b46:	8c 0f       	add	r24, r28
     b48:	a7 db       	rcall	.-2226   	; 0x298 <LCD_WriteData>
     b4a:	01 e8       	ldi	r16, 0x81	; 129
     b4c:	11 e0       	ldi	r17, 0x01	; 1
     b4e:	0f 2e       	mov	r0, r31
     b50:	f1 e9       	ldi	r31, 0x91	; 145
     b52:	ef 2e       	mov	r14, r31
     b54:	f1 e0       	ldi	r31, 0x01	; 1
     b56:	ff 2e       	mov	r15, r31
     b58:	f0 2d       	mov	r31, r0
     b5a:	c1 e1       	ldi	r28, 0x11	; 17
     b5c:	8c 2f       	mov	r24, r28
     b5e:	85 db       	rcall	.-2294   	; 0x26a <LCD_Cursor>
     b60:	f8 01       	movw	r30, r16
     b62:	81 91       	ld	r24, Z+
     b64:	8f 01       	movw	r16, r30
     b66:	98 db       	rcall	.-2256   	; 0x298 <LCD_WriteData>
     b68:	80 e0       	ldi	r24, 0x00	; 0
     b6a:	7f db       	rcall	.-2306   	; 0x26a <LCD_Cursor>
     b6c:	cf 5f       	subi	r28, 0xFF	; 255
     b6e:	0e 15       	cp	r16, r14
     b70:	1f 05       	cpc	r17, r15
     b72:	a1 f7       	brne	.-24     	; 0xb5c <lcd_display_tick+0x12a>
     b74:	5b df       	rcall	.-330    	; 0xa2c <clearLives>
     b76:	81 e0       	ldi	r24, 0x01	; 1
     b78:	90 e0       	ldi	r25, 0x00	; 0
     b7a:	67 c0       	rjmp	.+206    	; 0xc4a <lcd_display_tick+0x218>
     b7c:	80 e2       	ldi	r24, 0x20	; 32
     b7e:	e1 e6       	ldi	r30, 0x61	; 97
     b80:	f1 e0       	ldi	r31, 0x01	; 1
     b82:	ac e1       	ldi	r26, 0x1C	; 28
     b84:	b1 e0       	ldi	r27, 0x01	; 1
     b86:	01 90       	ld	r0, Z+
     b88:	0d 92       	st	X+, r0
     b8a:	8a 95       	dec	r24
     b8c:	e1 f7       	brne	.-8      	; 0xb86 <lcd_display_tick+0x154>
     b8e:	20 91 35 02 	lds	r18, 0x0235	; 0x800235 <terrainShift>
     b92:	ac e2       	ldi	r26, 0x2C	; 44
     b94:	b1 e0       	ldi	r27, 0x01	; 1
     b96:	4c e3       	ldi	r20, 0x3C	; 60
     b98:	51 e0       	ldi	r21, 0x01	; 1
     b9a:	30 e0       	ldi	r19, 0x00	; 0
     b9c:	2c 52       	subi	r18, 0x2C	; 44
     b9e:	31 40       	sbci	r19, 0x01	; 1
     ba0:	cc e1       	ldi	r28, 0x1C	; 28
     ba2:	d1 e0       	ldi	r29, 0x01	; 1
     ba4:	f9 01       	movw	r30, r18
     ba6:	ea 0f       	add	r30, r26
     ba8:	fb 1f       	adc	r31, r27
     baa:	ef 71       	andi	r30, 0x1F	; 31
     bac:	ff 27       	eor	r31, r31
     bae:	ef 54       	subi	r30, 0x4F	; 79
     bb0:	fe 4f       	sbci	r31, 0xFE	; 254
     bb2:	80 81       	ld	r24, Z
     bb4:	8d 93       	st	X+, r24
     bb6:	a4 17       	cp	r26, r20
     bb8:	b5 07       	cpc	r27, r21
     bba:	91 f7       	brne	.-28     	; 0xba0 <lcd_display_tick+0x16e>
     bbc:	ac e3       	ldi	r26, 0x3C	; 60
     bbe:	b1 e0       	ldi	r27, 0x01	; 1
     bc0:	ec 91       	ld	r30, X
     bc2:	f0 e0       	ldi	r31, 0x00	; 0
     bc4:	e4 5e       	subi	r30, 0xE4	; 228
     bc6:	fe 4f       	sbci	r31, 0xFE	; 254
     bc8:	80 e4       	ldi	r24, 0x40	; 64
     bca:	80 83       	st	Z, r24
     bcc:	11 96       	adiw	r26, 0x01	; 1
     bce:	ec 91       	ld	r30, X
     bd0:	11 97       	sbiw	r26, 0x01	; 1
     bd2:	f0 e0       	ldi	r31, 0x00	; 0
     bd4:	e4 5e       	subi	r30, 0xE4	; 228
     bd6:	fe 4f       	sbci	r31, 0xFE	; 254
     bd8:	80 83       	st	Z, r24
     bda:	12 96       	adiw	r26, 0x02	; 2
     bdc:	ec 91       	ld	r30, X
     bde:	f0 e0       	ldi	r31, 0x00	; 0
     be0:	e4 5e       	subi	r30, 0xE4	; 228
     be2:	fe 4f       	sbci	r31, 0xFE	; 254
     be4:	80 83       	st	Z, r24
     be6:	af e3       	ldi	r26, 0x3F	; 63
     be8:	b1 e0       	ldi	r27, 0x01	; 1
     bea:	24 e4       	ldi	r18, 0x44	; 68
     bec:	31 e0       	ldi	r19, 0x01	; 1
     bee:	8d e2       	ldi	r24, 0x2D	; 45
     bf0:	ed 91       	ld	r30, X+
     bf2:	f0 e0       	ldi	r31, 0x00	; 0
     bf4:	e4 5e       	subi	r30, 0xE4	; 228
     bf6:	fe 4f       	sbci	r31, 0xFE	; 254
     bf8:	80 83       	st	Z, r24
     bfa:	a2 17       	cp	r26, r18
     bfc:	b3 07       	cpc	r27, r19
     bfe:	c1 f7       	brne	.-16     	; 0xbf0 <lcd_display_tick+0x1be>
     c00:	e0 91 34 02 	lds	r30, 0x0234	; 0x800234 <player_one_location>
     c04:	f0 e0       	ldi	r31, 0x00	; 0
     c06:	e4 5e       	subi	r30, 0xE4	; 228
     c08:	fe 4f       	sbci	r31, 0xFE	; 254
     c0a:	8e e3       	ldi	r24, 0x3E	; 62
     c0c:	80 83       	st	Z, r24
     c0e:	10 e0       	ldi	r17, 0x00	; 0
     c10:	1f 5f       	subi	r17, 0xFF	; 255
     c12:	81 2f       	mov	r24, r17
     c14:	2a db       	rcall	.-2476   	; 0x26a <LCD_Cursor>
     c16:	7e 01       	movw	r14, r28
     c18:	88 81       	ld	r24, Y
     c1a:	8e 33       	cpi	r24, 0x3E	; 62
     c1c:	11 f4       	brne	.+4      	; 0xc22 <lcd_display_tick+0x1f0>
     c1e:	aa de       	rcall	.-684    	; 0x974 <displayPlayerOneSprite>
     c20:	07 c0       	rjmp	.+14     	; 0xc30 <lcd_display_tick+0x1fe>
     c22:	8f 3f       	cpi	r24, 0xFF	; 255
     c24:	11 f4       	brne	.+4      	; 0xc2a <lcd_display_tick+0x1f8>
     c26:	a9 de       	rcall	.-686    	; 0x97a <displayTerrainSprite>
     c28:	03 c0       	rjmp	.+6      	; 0xc30 <lcd_display_tick+0x1fe>
     c2a:	80 34       	cpi	r24, 0x40	; 64
     c2c:	09 f4       	brne	.+2      	; 0xc30 <lcd_display_tick+0x1fe>
     c2e:	a8 de       	rcall	.-688    	; 0x980 <displayEnemySprite>
     c30:	21 96       	adiw	r28, 0x01	; 1
     c32:	f7 01       	movw	r30, r14
     c34:	80 81       	ld	r24, Z
     c36:	30 db       	rcall	.-2464   	; 0x298 <LCD_WriteData>
     c38:	80 e0       	ldi	r24, 0x00	; 0
     c3a:	17 db       	rcall	.-2514   	; 0x26a <LCD_Cursor>
     c3c:	10 32       	cpi	r17, 0x20	; 32
     c3e:	41 f7       	brne	.-48     	; 0xc10 <lcd_display_tick+0x1de>
     c40:	80 91 36 02 	lds	r24, 0x0236	; 0x800236 <lives>
     c44:	bf de       	rcall	.-642    	; 0x9c4 <displayLives>
     c46:	82 e0       	ldi	r24, 0x02	; 2
     c48:	90 e0       	ldi	r25, 0x00	; 0
     c4a:	df 91       	pop	r29
     c4c:	cf 91       	pop	r28
     c4e:	1f 91       	pop	r17
     c50:	0f 91       	pop	r16
     c52:	ff 90       	pop	r15
     c54:	ef 90       	pop	r14
     c56:	08 95       	ret

00000c58 <saveScore>:
     c58:	68 2f       	mov	r22, r24
     c5a:	80 e0       	ldi	r24, 0x00	; 0
     c5c:	90 e0       	ldi	r25, 0x00	; 0
     c5e:	0a c4       	rjmp	.+2068   	; 0x1474 <eeprom_write_byte>
     c60:	08 95       	ret

00000c62 <loadScore>:
     c62:	80 e0       	ldi	r24, 0x00	; 0
     c64:	90 e0       	ldi	r25, 0x00	; 0
     c66:	fe c3       	rjmp	.+2044   	; 0x1464 <eeprom_read_byte>
     c68:	08 95       	ret

00000c6a <game_start_tick>:
     c6a:	20 91 38 02 	lds	r18, 0x0238	; 0x800238 <gameOverFlag>
     c6e:	21 30       	cpi	r18, 0x01	; 1
     c70:	21 f4       	brne	.+8      	; 0xc7a <game_start_tick+0x10>
     c72:	80 91 37 02 	lds	r24, 0x0237	; 0x800237 <score>
     c76:	f0 df       	rcall	.-32     	; 0xc58 <saveScore>
     c78:	19 c0       	rjmp	.+50     	; 0xcac <game_start_tick+0x42>
     c7a:	81 30       	cpi	r24, 0x01	; 1
     c7c:	91 05       	cpc	r25, r1
     c7e:	89 f0       	breq	.+34     	; 0xca2 <game_start_tick+0x38>
     c80:	82 30       	cpi	r24, 0x02	; 2
     c82:	91 05       	cpc	r25, r1
     c84:	99 f0       	breq	.+38     	; 0xcac <game_start_tick+0x42>
     c86:	00 97       	sbiw	r24, 0x00	; 0
     c88:	c1 f4       	brne	.+48     	; 0xcba <game_start_tick+0x50>
     c8a:	80 91 44 01 	lds	r24, 0x0144	; 0x800144 <key>
     c8e:	81 34       	cpi	r24, 0x41	; 65
     c90:	e1 f4       	brne	.+56     	; 0xcca <game_start_tick+0x60>
     c92:	e7 df       	rcall	.-50     	; 0xc62 <loadScore>
     c94:	81 11       	cpse	r24, r1
     c96:	80 93 37 02 	sts	0x0237, r24	; 0x800237 <score>
     c9a:	85 e0       	ldi	r24, 0x05	; 5
     c9c:	80 93 36 02 	sts	0x0236, r24	; 0x800236 <lives>
     ca0:	19 c0       	rjmp	.+50     	; 0xcd4 <game_start_tick+0x6a>
     ca2:	80 91 44 01 	lds	r24, 0x0144	; 0x800144 <key>
     ca6:	84 34       	cpi	r24, 0x44	; 68
     ca8:	a9 f4       	brne	.+42     	; 0xcd4 <game_start_tick+0x6a>
     caa:	0f c0       	rjmp	.+30     	; 0xcca <game_start_tick+0x60>
     cac:	80 91 44 01 	lds	r24, 0x0144	; 0x800144 <key>
     cb0:	83 34       	cpi	r24, 0x43	; 67
     cb2:	b1 f4       	brne	.+44     	; 0xce0 <game_start_tick+0x76>
     cb4:	10 92 38 02 	sts	0x0238, r1	; 0x800238 <gameOverFlag>
     cb8:	08 c0       	rjmp	.+16     	; 0xcca <game_start_tick+0x60>
     cba:	81 30       	cpi	r24, 0x01	; 1
     cbc:	91 05       	cpc	r25, r1
     cbe:	51 f0       	breq	.+20     	; 0xcd4 <game_start_tick+0x6a>
     cc0:	82 30       	cpi	r24, 0x02	; 2
     cc2:	91 05       	cpc	r25, r1
     cc4:	69 f0       	breq	.+26     	; 0xce0 <game_start_tick+0x76>
     cc6:	00 97       	sbiw	r24, 0x00	; 0
     cc8:	79 f4       	brne	.+30     	; 0xce8 <game_start_tick+0x7e>
     cca:	10 92 39 02 	sts	0x0239, r1	; 0x800239 <playFlag>
     cce:	80 e0       	ldi	r24, 0x00	; 0
     cd0:	90 e0       	ldi	r25, 0x00	; 0
     cd2:	08 95       	ret
     cd4:	81 e0       	ldi	r24, 0x01	; 1
     cd6:	80 93 39 02 	sts	0x0239, r24	; 0x800239 <playFlag>
     cda:	81 e0       	ldi	r24, 0x01	; 1
     cdc:	90 e0       	ldi	r25, 0x00	; 0
     cde:	08 95       	ret
     ce0:	10 92 39 02 	sts	0x0239, r1	; 0x800239 <playFlag>
     ce4:	82 e0       	ldi	r24, 0x02	; 2
     ce6:	90 e0       	ldi	r25, 0x00	; 0
     ce8:	08 95       	ret

00000cea <main>:
			break;
 	}
	return state;
}

int main() {
     cea:	cf 93       	push	r28
     cec:	df 93       	push	r29
     cee:	cd b7       	in	r28, 0x3d	; 61
     cf0:	de b7       	in	r29, 0x3e	; 62
     cf2:	60 97       	sbiw	r28, 0x10	; 16
     cf4:	0f b6       	in	r0, 0x3f	; 63
     cf6:	f8 94       	cli
     cf8:	de bf       	out	0x3e, r29	; 62
     cfa:	0f be       	out	0x3f, r0	; 63
     cfc:	cd bf       	out	0x3d, r28	; 61
	// Set Data Direction Registers
	DDRA = 0xFF; PORTA = 0x00; //output
     cfe:	8f ef       	ldi	r24, 0xFF	; 255
     d00:	81 b9       	out	0x01, r24	; 1
     d02:	12 b8       	out	0x02, r1	; 2
	DDRB = 0xFF; PORTB = 0x00; //output
     d04:	84 b9       	out	0x04, r24	; 4
     d06:	15 b8       	out	0x05, r1	; 5
	DDRC = 0xF0; PORTC = 0x0F; // PC7..4 outputs init 0s, PC3..0 inputs init 1
     d08:	90 ef       	ldi	r25, 0xF0	; 240
     d0a:	97 b9       	out	0x07, r25	; 7
     d0c:	9f e0       	ldi	r25, 0x0F	; 15
     d0e:	98 b9       	out	0x08, r25	; 8
	DDRD = 0xFF; PORTD = 0x00; //output
     d10:	8a b9       	out	0x0a, r24	; 10
     d12:	1b b8       	out	0x0b, r1	; 11
     d14:	18 ec       	ldi	r17, 0xC8	; 200
     d16:	00 e0       	ldi	r16, 0x00	; 0
     d18:	f1 2c       	mov	r15, r1
     d1a:	e1 2c       	mov	r14, r1
     d1c:	54 e6       	ldi	r21, 0x64	; 100
     d1e:	40 e0       	ldi	r20, 0x00	; 0
     d20:	30 e0       	ldi	r19, 0x00	; 0
     d22:	20 e0       	ldi	r18, 0x00	; 0
     d24:	04 c0       	rjmp	.+8      	; 0xd2e <main+0x44>
	unsigned long int c;
	while(1){
		c = a%b;
		if(c==0){return b;}
		a = b;
		b = c;
     d26:	16 2f       	mov	r17, r22
     d28:	07 2f       	mov	r16, r23
     d2a:	f8 2e       	mov	r15, r24
     d2c:	e9 2e       	mov	r14, r25
//--------Find GCD function --------------------------------------------------
unsigned long int findGCD(unsigned long int a, unsigned long int b)
{
	unsigned long int c;
	while(1){
		c = a%b;
     d2e:	65 2f       	mov	r22, r21
     d30:	74 2f       	mov	r23, r20
     d32:	83 2f       	mov	r24, r19
     d34:	92 2f       	mov	r25, r18
     d36:	21 2f       	mov	r18, r17
     d38:	30 2f       	mov	r19, r16
     d3a:	4f 2d       	mov	r20, r15
     d3c:	5e 2d       	mov	r21, r14
     d3e:	fe d2       	rcall	.+1532   	; 0x133c <__udivmodsi4>
     d40:	51 2f       	mov	r21, r17
     d42:	40 2f       	mov	r20, r16
     d44:	3f 2d       	mov	r19, r15
     d46:	2e 2d       	mov	r18, r14
		if(c==0){return b;}
     d48:	61 15       	cp	r22, r1
     d4a:	71 05       	cpc	r23, r1
     d4c:	81 05       	cpc	r24, r1
     d4e:	91 05       	cpc	r25, r1
     d50:	51 f7       	brne	.-44     	; 0xd26 <main+0x3c>
     d52:	0f 2e       	mov	r0, r31
     d54:	f8 ec       	ldi	r31, 0xC8	; 200
     d56:	bf 2e       	mov	r11, r31
     d58:	f0 2d       	mov	r31, r0
     d5a:	a1 2c       	mov	r10, r1
     d5c:	91 2c       	mov	r9, r1
     d5e:	81 2c       	mov	r8, r1
     d60:	04 c0       	rjmp	.+8      	; 0xd6a <main+0x80>
		a = b;
		b = c;
     d62:	b6 2e       	mov	r11, r22
     d64:	a7 2e       	mov	r10, r23
     d66:	98 2e       	mov	r9, r24
     d68:	89 2e       	mov	r8, r25
//--------Find GCD function --------------------------------------------------
unsigned long int findGCD(unsigned long int a, unsigned long int b)
{
	unsigned long int c;
	while(1){
		c = a%b;
     d6a:	61 2f       	mov	r22, r17
     d6c:	70 2f       	mov	r23, r16
     d6e:	8f 2d       	mov	r24, r15
     d70:	9e 2d       	mov	r25, r14
     d72:	2b 2d       	mov	r18, r11
     d74:	3a 2d       	mov	r19, r10
     d76:	49 2d       	mov	r20, r9
     d78:	58 2d       	mov	r21, r8
     d7a:	e0 d2       	rcall	.+1472   	; 0x133c <__udivmodsi4>
     d7c:	1b 2d       	mov	r17, r11
     d7e:	0a 2d       	mov	r16, r10
     d80:	f9 2c       	mov	r15, r9
     d82:	e8 2c       	mov	r14, r8
		if(c==0){return b;}
     d84:	61 15       	cp	r22, r1
     d86:	71 05       	cpc	r23, r1
     d88:	81 05       	cpc	r24, r1
     d8a:	91 05       	cpc	r25, r1
     d8c:	51 f7       	brne	.-44     	; 0xd62 <main+0x78>
     d8e:	10 e9       	ldi	r17, 0x90	; 144
     d90:	01 e0       	ldi	r16, 0x01	; 1
     d92:	f1 2c       	mov	r15, r1
     d94:	e1 2c       	mov	r14, r1
     d96:	04 c0       	rjmp	.+8      	; 0xda0 <main+0xb6>
		a = b;
		b = c;
     d98:	16 2f       	mov	r17, r22
     d9a:	07 2f       	mov	r16, r23
     d9c:	f8 2e       	mov	r15, r24
     d9e:	e9 2e       	mov	r14, r25
//--------Find GCD function --------------------------------------------------
unsigned long int findGCD(unsigned long int a, unsigned long int b)
{
	unsigned long int c;
	while(1){
		c = a%b;
     da0:	6b 2d       	mov	r22, r11
     da2:	7a 2d       	mov	r23, r10
     da4:	89 2d       	mov	r24, r9
     da6:	98 2d       	mov	r25, r8
     da8:	21 2f       	mov	r18, r17
     daa:	30 2f       	mov	r19, r16
     dac:	4f 2d       	mov	r20, r15
     dae:	5e 2d       	mov	r21, r14
     db0:	c5 d2       	rcall	.+1418   	; 0x133c <__udivmodsi4>
     db2:	b1 2e       	mov	r11, r17
     db4:	a0 2e       	mov	r10, r16
     db6:	9f 2c       	mov	r9, r15
     db8:	8e 2c       	mov	r8, r14
		if(c==0){return b;}
     dba:	61 15       	cp	r22, r1
     dbc:	71 05       	cpc	r23, r1
     dbe:	81 05       	cpc	r24, r1
     dc0:	91 05       	cpc	r25, r1
     dc2:	51 f7       	brne	.-44     	; 0xd98 <main+0xae>
     dc4:	0f 2e       	mov	r0, r31
     dc6:	f0 e9       	ldi	r31, 0x90	; 144
     dc8:	bf 2e       	mov	r11, r31
     dca:	f0 2d       	mov	r31, r0
     dcc:	aa 24       	eor	r10, r10
     dce:	a3 94       	inc	r10
     dd0:	91 2c       	mov	r9, r1
     dd2:	81 2c       	mov	r8, r1
     dd4:	04 c0       	rjmp	.+8      	; 0xdde <main+0xf4>
		a = b;
		b = c;
     dd6:	b6 2e       	mov	r11, r22
     dd8:	a7 2e       	mov	r10, r23
     dda:	98 2e       	mov	r9, r24
     ddc:	89 2e       	mov	r8, r25
//--------Find GCD function --------------------------------------------------
unsigned long int findGCD(unsigned long int a, unsigned long int b)
{
	unsigned long int c;
	while(1){
		c = a%b;
     dde:	61 2f       	mov	r22, r17
     de0:	70 2f       	mov	r23, r16
     de2:	8f 2d       	mov	r24, r15
     de4:	9e 2d       	mov	r25, r14
     de6:	2b 2d       	mov	r18, r11
     de8:	3a 2d       	mov	r19, r10
     dea:	49 2d       	mov	r20, r9
     dec:	58 2d       	mov	r21, r8
     dee:	a6 d2       	rcall	.+1356   	; 0x133c <__udivmodsi4>
     df0:	1b 2d       	mov	r17, r11
     df2:	0a 2d       	mov	r16, r10
     df4:	f9 2c       	mov	r15, r9
     df6:	e8 2c       	mov	r14, r8
		if(c==0){return b;}
     df8:	61 15       	cp	r22, r1
     dfa:	71 05       	cpc	r23, r1
     dfc:	81 05       	cpc	r24, r1
     dfe:	91 05       	cpc	r25, r1
     e00:	51 f7       	brne	.-44     	; 0xdd6 <main+0xec>
     e02:	0f 2e       	mov	r0, r31
     e04:	f8 ec       	ldi	r31, 0xC8	; 200
     e06:	ef 2e       	mov	r14, r31
     e08:	f0 2d       	mov	r31, r0
     e0a:	f1 2c       	mov	r15, r1
     e0c:	00 e0       	ldi	r16, 0x00	; 0
     e0e:	10 e0       	ldi	r17, 0x00	; 0
     e10:	04 c0       	rjmp	.+8      	; 0xe1a <main+0x130>
		a = b;
		b = c;
     e12:	e6 2e       	mov	r14, r22
     e14:	f7 2e       	mov	r15, r23
     e16:	08 2f       	mov	r16, r24
     e18:	19 2f       	mov	r17, r25
//--------Find GCD function --------------------------------------------------
unsigned long int findGCD(unsigned long int a, unsigned long int b)
{
	unsigned long int c;
	while(1){
		c = a%b;
     e1a:	6b 2d       	mov	r22, r11
     e1c:	7a 2d       	mov	r23, r10
     e1e:	89 2d       	mov	r24, r9
     e20:	98 2d       	mov	r25, r8
     e22:	2e 2d       	mov	r18, r14
     e24:	3f 2d       	mov	r19, r15
     e26:	40 2f       	mov	r20, r16
     e28:	51 2f       	mov	r21, r17
     e2a:	88 d2       	rcall	.+1296   	; 0x133c <__udivmodsi4>
     e2c:	be 2c       	mov	r11, r14
     e2e:	af 2c       	mov	r10, r15
     e30:	90 2e       	mov	r9, r16
     e32:	81 2e       	mov	r8, r17
		if(c==0){return b;}
     e34:	61 15       	cp	r22, r1
     e36:	71 05       	cpc	r23, r1
     e38:	81 05       	cpc	r24, r1
     e3a:	91 05       	cpc	r25, r1
     e3c:	51 f7       	brne	.-44     	; 0xe12 <main+0x128>

	//Greatest common divisor for all tasks or smallest time unit for tasks.
	unsigned long int GCD = tmpGCD;

	//Recalculate GCD periods for scheduler
	unsigned long int key_tick_period = key_tick_calc/GCD;
     e3e:	68 ec       	ldi	r22, 0xC8	; 200
     e40:	70 e0       	ldi	r23, 0x00	; 0
     e42:	80 e0       	ldi	r24, 0x00	; 0
     e44:	90 e0       	ldi	r25, 0x00	; 0
     e46:	2e 2d       	mov	r18, r14
     e48:	3f 2d       	mov	r19, r15
     e4a:	40 2f       	mov	r20, r16
     e4c:	51 2f       	mov	r21, r17
     e4e:	76 d2       	rcall	.+1260   	; 0x133c <__udivmodsi4>
     e50:	49 01       	movw	r8, r18
     e52:	5a 01       	movw	r10, r20
	unsigned long int display_tick_period = display_tick_calc/GCD;
     e54:	64 e6       	ldi	r22, 0x64	; 100
     e56:	70 e0       	ldi	r23, 0x00	; 0
     e58:	80 e0       	ldi	r24, 0x00	; 0
     e5a:	90 e0       	ldi	r25, 0x00	; 0
     e5c:	2e 2d       	mov	r18, r14
     e5e:	3f 2d       	mov	r19, r15
     e60:	40 2f       	mov	r20, r16
     e62:	51 2f       	mov	r21, r17
     e64:	6b d2       	rcall	.+1238   	; 0x133c <__udivmodsi4>
     e66:	29 01       	movw	r4, r18
     e68:	3a 01       	movw	r6, r20
	unsigned long int game_start_tick_period = game_start_tick_calc/GCD;
	unsigned long int player_one_tick_period = player_one_tick_calc/GCD;
	unsigned long int player_one_projectile_tick_period = player_one_projectile_tick_calc/GCD;
	unsigned long int terrain_tick_period = terrain_tick_calc/GCD;
     e6a:	60 e9       	ldi	r22, 0x90	; 144
     e6c:	71 e0       	ldi	r23, 0x01	; 1
     e6e:	80 e0       	ldi	r24, 0x00	; 0
     e70:	90 e0       	ldi	r25, 0x00	; 0
     e72:	2e 2d       	mov	r18, r14
     e74:	3f 2d       	mov	r19, r15
     e76:	40 2f       	mov	r20, r16
     e78:	51 2f       	mov	r21, r17
     e7a:	60 d2       	rcall	.+1216   	; 0x133c <__udivmodsi4>
	unsigned long int enemy_tick_period = enemy_tick_calc/GCD;
	unsigned long int collision_tick_period = collision_tick_calc/GCD;

	//Declare an array of tasks 
	static task task1, task2, task3, task4, task5, task6, task7, task8;
	task *tasks[] = { &task1, &task2, &task3, &task4, &task5, &task6, &task7, &task8};
     e7c:	80 e1       	ldi	r24, 0x10	; 16
     e7e:	e9 e4       	ldi	r30, 0x49	; 73
     e80:	f1 e0       	ldi	r31, 0x01	; 1
     e82:	de 01       	movw	r26, r28
     e84:	11 96       	adiw	r26, 0x01	; 1
     e86:	01 90       	ld	r0, Z+
     e88:	0d 92       	st	X+, r0
     e8a:	8a 95       	dec	r24
     e8c:	e1 f7       	brne	.-8      	; 0xe86 <main+0x19c>
	const unsigned short numTasks = sizeof(tasks)/sizeof(task*);

	// Task 1
	task1.state = FETCHKEY;//Task initial state.
     e8e:	ef e1       	ldi	r30, 0x1F	; 31
     e90:	f2 e0       	ldi	r31, 0x02	; 2
     e92:	10 82       	st	Z, r1
	task1.period = key_tick_period;//Task Period.
     e94:	81 82       	std	Z+1, r8	; 0x01
     e96:	92 82       	std	Z+2, r9	; 0x02
     e98:	a3 82       	std	Z+3, r10	; 0x03
     e9a:	b4 82       	std	Z+4, r11	; 0x04
	task1.elapsedTime = 0;//Task current elapsed time.
     e9c:	15 82       	std	Z+5, r1	; 0x05
     e9e:	16 82       	std	Z+6, r1	; 0x06
     ea0:	17 82       	std	Z+7, r1	; 0x07
     ea2:	10 86       	std	Z+8, r1	; 0x08
	task1.TickFct = &key_tick;//Function pointer for the tick.
     ea4:	83 ef       	ldi	r24, 0xF3	; 243
     ea6:	92 e0       	ldi	r25, 0x02	; 2
     ea8:	92 87       	std	Z+10, r25	; 0x0a
     eaa:	81 87       	std	Z+9, r24	; 0x09

	// Task 2
	task2.state = DISPLAY_START_MESSAGE;//Task initial state.
     eac:	e4 e1       	ldi	r30, 0x14	; 20
     eae:	f2 e0       	ldi	r31, 0x02	; 2
     eb0:	10 82       	st	Z, r1
	task2.period = display_tick_period;//Task Period.
     eb2:	41 82       	std	Z+1, r4	; 0x01
     eb4:	52 82       	std	Z+2, r5	; 0x02
     eb6:	63 82       	std	Z+3, r6	; 0x03
     eb8:	74 82       	std	Z+4, r7	; 0x04
	task2.elapsedTime = 0;//Task current elapsed time.
     eba:	15 82       	std	Z+5, r1	; 0x05
     ebc:	16 82       	std	Z+6, r1	; 0x06
     ebe:	17 82       	std	Z+7, r1	; 0x07
     ec0:	10 86       	std	Z+8, r1	; 0x08
	task2.TickFct = &lcd_display_tick;//Function pointer for the tick.
     ec2:	89 e1       	ldi	r24, 0x19	; 25
     ec4:	95 e0       	ldi	r25, 0x05	; 5
     ec6:	92 87       	std	Z+10, r25	; 0x0a
     ec8:	81 87       	std	Z+9, r24	; 0x09

	// Task 3
	task3.state = GAME_INIT;//Task initial state.
     eca:	e9 e0       	ldi	r30, 0x09	; 9
     ecc:	f2 e0       	ldi	r31, 0x02	; 2
     ece:	10 82       	st	Z, r1
	task3.period = game_start_tick_period;//Task Period.
     ed0:	41 82       	std	Z+1, r4	; 0x01
     ed2:	52 82       	std	Z+2, r5	; 0x02
     ed4:	63 82       	std	Z+3, r6	; 0x03
     ed6:	74 82       	std	Z+4, r7	; 0x04
	task3.elapsedTime = 0;//Task current elapsed time.
     ed8:	15 82       	std	Z+5, r1	; 0x05
     eda:	16 82       	std	Z+6, r1	; 0x06
     edc:	17 82       	std	Z+7, r1	; 0x07
     ede:	10 86       	std	Z+8, r1	; 0x08
	task3.TickFct = &game_start_tick;//Function pointer for the tick.
     ee0:	85 e3       	ldi	r24, 0x35	; 53
     ee2:	96 e0       	ldi	r25, 0x06	; 6
     ee4:	92 87       	std	Z+10, r25	; 0x0a
     ee6:	81 87       	std	Z+9, r24	; 0x09

	// Task 4
	task4.state = TERRAIN_INIT;//Task initial state.
     ee8:	ee ef       	ldi	r30, 0xFE	; 254
     eea:	f1 e0       	ldi	r31, 0x01	; 1
     eec:	10 82       	st	Z, r1
	task4.period = terrain_tick_period;//Task Period.
     eee:	21 83       	std	Z+1, r18	; 0x01
     ef0:	32 83       	std	Z+2, r19	; 0x02
     ef2:	43 83       	std	Z+3, r20	; 0x03
     ef4:	54 83       	std	Z+4, r21	; 0x04
	task4.elapsedTime = 0;//Task current elapsed time.
     ef6:	15 82       	std	Z+5, r1	; 0x05
     ef8:	16 82       	std	Z+6, r1	; 0x06
     efa:	17 82       	std	Z+7, r1	; 0x07
     efc:	10 86       	std	Z+8, r1	; 0x08
	task4.TickFct = &terrain_tick;//Function pointer for the tick.
     efe:	82 e8       	ldi	r24, 0x82	; 130
     f00:	90 e0       	ldi	r25, 0x00	; 0
     f02:	92 87       	std	Z+10, r25	; 0x0a
     f04:	81 87       	std	Z+9, r24	; 0x09

	// Task 5
	task5.state = PLAYER_ONE_INIT;//Task initial state.
     f06:	e3 ef       	ldi	r30, 0xF3	; 243
     f08:	f1 e0       	ldi	r31, 0x01	; 1
     f0a:	10 82       	st	Z, r1
	task5.period = player_one_tick_period;//Task Period.
     f0c:	81 82       	std	Z+1, r8	; 0x01
     f0e:	92 82       	std	Z+2, r9	; 0x02
     f10:	a3 82       	std	Z+3, r10	; 0x03
     f12:	b4 82       	std	Z+4, r11	; 0x04
	task5.elapsedTime = 0;//Task current elapsed time.
     f14:	15 82       	std	Z+5, r1	; 0x05
     f16:	16 82       	std	Z+6, r1	; 0x06
     f18:	17 82       	std	Z+7, r1	; 0x07
     f1a:	10 86       	std	Z+8, r1	; 0x08
	task5.TickFct = &player_one_tick;//Function pointer for the tick.
     f1c:	8e e0       	ldi	r24, 0x0E	; 14
     f1e:	93 e0       	ldi	r25, 0x03	; 3
     f20:	92 87       	std	Z+10, r25	; 0x0a
     f22:	81 87       	std	Z+9, r24	; 0x09

	// Task 6
	task6.state = PLAYER_ONE_PROJECTILE_INIT;//Task initial state.
     f24:	e8 ee       	ldi	r30, 0xE8	; 232
     f26:	f1 e0       	ldi	r31, 0x01	; 1
     f28:	10 82       	st	Z, r1
	task6.period = player_one_projectile_tick_period;//Task Period.
     f2a:	81 82       	std	Z+1, r8	; 0x01
     f2c:	92 82       	std	Z+2, r9	; 0x02
     f2e:	a3 82       	std	Z+3, r10	; 0x03
     f30:	b4 82       	std	Z+4, r11	; 0x04
	task6.elapsedTime = 0;//Task current elapsed time.
     f32:	15 82       	std	Z+5, r1	; 0x05
     f34:	16 82       	std	Z+6, r1	; 0x06
     f36:	17 82       	std	Z+7, r1	; 0x07
     f38:	10 86       	std	Z+8, r1	; 0x08
	task6.TickFct = &player_one_projectile_tick;//Function pointer for the tick.
     f3a:	8c e5       	ldi	r24, 0x5C	; 92
     f3c:	93 e0       	ldi	r25, 0x03	; 3
     f3e:	92 87       	std	Z+10, r25	; 0x0a
     f40:	81 87       	std	Z+9, r24	; 0x09
	
	// Task 7
	task7.state = ENEMY_INIT;//Task initial state.
     f42:	ed ed       	ldi	r30, 0xDD	; 221
     f44:	f1 e0       	ldi	r31, 0x01	; 1
     f46:	10 82       	st	Z, r1
	task7.period = enemy_tick_period;//Task Period.
     f48:	21 83       	std	Z+1, r18	; 0x01
     f4a:	32 83       	std	Z+2, r19	; 0x02
     f4c:	43 83       	std	Z+3, r20	; 0x03
     f4e:	54 83       	std	Z+4, r21	; 0x04
	task7.elapsedTime = 0;//Task current elapsed time.
     f50:	15 82       	std	Z+5, r1	; 0x05
     f52:	16 82       	std	Z+6, r1	; 0x06
     f54:	17 82       	std	Z+7, r1	; 0x07
     f56:	10 86       	std	Z+8, r1	; 0x08
	task7.TickFct = &enemy_tick;//Function pointer for the tick.
     f58:	81 ef       	ldi	r24, 0xF1	; 241
     f5a:	93 e0       	ldi	r25, 0x03	; 3
     f5c:	92 87       	std	Z+10, r25	; 0x0a
     f5e:	81 87       	std	Z+9, r24	; 0x09
		
	// Task 8
	task8.state = COLLISION_INIT;//Task initial state.
     f60:	e2 ed       	ldi	r30, 0xD2	; 210
     f62:	f1 e0       	ldi	r31, 0x01	; 1
     f64:	10 82       	st	Z, r1
	task8.period = collision_tick_period;//Task Period.
     f66:	81 82       	std	Z+1, r8	; 0x01
     f68:	92 82       	std	Z+2, r9	; 0x02
     f6a:	a3 82       	std	Z+3, r10	; 0x03
     f6c:	b4 82       	std	Z+4, r11	; 0x04
	task8.elapsedTime = 0;//Task current elapsed time.
     f6e:	15 82       	std	Z+5, r1	; 0x05
     f70:	16 82       	std	Z+6, r1	; 0x06
     f72:	17 82       	std	Z+7, r1	; 0x07
     f74:	10 86       	std	Z+8, r1	; 0x08
	task8.TickFct = &collision_tick;//Function pointer for the tick.
     f76:	86 ed       	ldi	r24, 0xD6	; 214
     f78:	91 e0       	ldi	r25, 0x01	; 1

	// Set the timer and turn it on
	TimerSet(GCD);
     f7a:	92 87       	std	Z+10, r25	; 0x0a
     f7c:	81 87       	std	Z+9, r24	; 0x09
     f7e:	6e 2d       	mov	r22, r14
     f80:	7f 2d       	mov	r23, r15
	TimerOn();
     f82:	80 2f       	mov	r24, r16

	// initialize LCD and sprites
	LCD_init();
     f84:	91 2f       	mov	r25, r17
     f86:	e1 d8       	rcall	.-3646   	; 0x14a <TimerSet>
 	loadPlayerOneSprite();
     f88:	f1 d8       	rcall	.-3614   	; 0x16c <TimerOn>
     f8a:	77 d9       	rcall	.-3346   	; 0x27a <LCD_init>
	loadTerrainSprite();
     f8c:	e4 dc       	rcall	.-1592   	; 0x956 <loadPlayerOneSprite>
     f8e:	e8 dc       	rcall	.-1584   	; 0x960 <loadTerrainSprite>
	loadEnemySprite();
     f90:	ec dc       	rcall	.-1576   	; 0x96a <loadEnemySprite>
     f92:	80 e0       	ldi	r24, 0x00	; 0

	// initialize RNG
	srand(time(NULL));
     f94:	90 e0       	ldi	r25, 0x00	; 0
     f96:	a3 d8       	rcall	.-3770   	; 0xde <time>
     f98:	cb 01       	movw	r24, r22
     f9a:	59 d2       	rcall	.+1202   	; 0x144e <srand>
     f9c:	cb da       	rcall	.-2666   	; 0x534 <PWM_on>
     f9e:	5e 01       	movw	r10, r28
     fa0:	81 e1       	ldi	r24, 0x11	; 17
	
	// initialize PWM
	PWM_on();
     fa2:	a8 0e       	add	r10, r24
     fa4:	b1 1c       	adc	r11, r1
     fa6:	de 01       	movw	r26, r28
     fa8:	11 96       	adiw	r26, 0x01	; 1
     faa:	7d 01       	movw	r14, r26
     fac:	f7 01       	movw	r30, r14
     fae:	01 91       	ld	r16, Z+
     fb0:	11 91       	ld	r17, Z+
     fb2:	7f 01       	movw	r14, r30
	unsigned short i; // Scheduler for-loop iterator
	while(1) {
		// Scheduler code
		for ( i = 0; i < numTasks; i++ ) {
			// Task is ready to tick
			if ( tasks[i]->elapsedTime == tasks[i]->period ) {
     fb4:	d8 01       	movw	r26, r16
     fb6:	15 96       	adiw	r26, 0x05	; 5
     fb8:	4d 91       	ld	r20, X+
     fba:	5d 91       	ld	r21, X+
     fbc:	6d 91       	ld	r22, X+
     fbe:	7c 91       	ld	r23, X
     fc0:	18 97       	sbiw	r26, 0x08	; 8
     fc2:	11 96       	adiw	r26, 0x01	; 1
     fc4:	8d 91       	ld	r24, X+
     fc6:	9d 91       	ld	r25, X+
     fc8:	0d 90       	ld	r0, X+
     fca:	bc 91       	ld	r27, X
     fcc:	a0 2d       	mov	r26, r0
     fce:	48 17       	cp	r20, r24
     fd0:	59 07       	cpc	r21, r25
     fd2:	6a 07       	cpc	r22, r26
     fd4:	7b 07       	cpc	r23, r27
     fd6:	81 f4       	brne	.+32     	; 0xff8 <main+0x30e>
     fd8:	f8 01       	movw	r30, r16
     fda:	80 81       	ld	r24, Z
     fdc:	01 84       	ldd	r0, Z+9	; 0x09
     fde:	f2 85       	ldd	r31, Z+10	; 0x0a
				// Setting next state for task
				tasks[i]->state = tasks[i]->TickFct(tasks[i]->state);
     fe0:	e0 2d       	mov	r30, r0
     fe2:	08 2e       	mov	r0, r24
     fe4:	00 0c       	add	r0, r0
     fe6:	99 0b       	sbc	r25, r25
     fe8:	09 95       	icall
     fea:	d8 01       	movw	r26, r16
     fec:	8c 93       	st	X, r24
     fee:	f8 01       	movw	r30, r16
     ff0:	15 82       	std	Z+5, r1	; 0x05
     ff2:	16 82       	std	Z+6, r1	; 0x06
     ff4:	17 82       	std	Z+7, r1	; 0x07
				// Reset the elapsed time for next tick.
				tasks[i]->elapsedTime = 0;
     ff6:	10 86       	std	Z+8, r1	; 0x08
     ff8:	f8 01       	movw	r30, r16
     ffa:	85 81       	ldd	r24, Z+5	; 0x05
     ffc:	96 81       	ldd	r25, Z+6	; 0x06
     ffe:	a7 81       	ldd	r26, Z+7	; 0x07
			}
			tasks[i]->elapsedTime += 1;
    1000:	b0 85       	ldd	r27, Z+8	; 0x08
    1002:	01 96       	adiw	r24, 0x01	; 1
    1004:	a1 1d       	adc	r26, r1
    1006:	b1 1d       	adc	r27, r1
    1008:	85 83       	std	Z+5, r24	; 0x05
    100a:	96 83       	std	Z+6, r25	; 0x06
    100c:	a7 83       	std	Z+7, r26	; 0x07
    100e:	b0 87       	std	Z+8, r27	; 0x08
    1010:	ae 14       	cp	r10, r14
    1012:	bf 04       	cpc	r11, r15
    1014:	59 f6       	brne	.-106    	; 0xfac <main+0x2c2>
    1016:	80 91 3e 02 	lds	r24, 0x023E	; 0x80023e <TimerFlag>
	PWM_on();

	unsigned short i; // Scheduler for-loop iterator
	while(1) {
		// Scheduler code
		for ( i = 0; i < numTasks; i++ ) {
    101a:	88 23       	and	r24, r24
    101c:	e1 f3       	breq	.-8      	; 0x1016 <main+0x32c>
				// Reset the elapsed time for next tick.
				tasks[i]->elapsedTime = 0;
			}
			tasks[i]->elapsedTime += 1;
		}
		while(!TimerFlag);
    101e:	10 92 3e 02 	sts	0x023E, r1	; 0x80023e <TimerFlag>
    1022:	c1 cf       	rjmp	.-126    	; 0xfa6 <main+0x2bc>

00001024 <__cmpsf2>:
    1024:	9c d0       	rcall	.+312    	; 0x115e <__fp_cmp>
		TimerFlag = 0;
    1026:	08 f4       	brcc	.+2      	; 0x102a <__cmpsf2+0x6>
    1028:	81 e0       	ldi	r24, 0x01	; 1
	}
    102a:	08 95       	ret

0000102c <__divsf3>:
    102c:	0c d0       	rcall	.+24     	; 0x1046 <__divsf3x>
    102e:	d2 c0       	rjmp	.+420    	; 0x11d4 <__fp_round>
    1030:	ca d0       	rcall	.+404    	; 0x11c6 <__fp_pscB>
    1032:	40 f0       	brcs	.+16     	; 0x1044 <__divsf3+0x18>
    1034:	c1 d0       	rcall	.+386    	; 0x11b8 <__fp_pscA>
    1036:	30 f0       	brcs	.+12     	; 0x1044 <__divsf3+0x18>
    1038:	21 f4       	brne	.+8      	; 0x1042 <__divsf3+0x16>
    103a:	5f 3f       	cpi	r21, 0xFF	; 255
    103c:	19 f0       	breq	.+6      	; 0x1044 <__divsf3+0x18>
    103e:	b3 c0       	rjmp	.+358    	; 0x11a6 <__fp_inf>
    1040:	51 11       	cpse	r21, r1
    1042:	fc c0       	rjmp	.+504    	; 0x123c <__fp_szero>
    1044:	b6 c0       	rjmp	.+364    	; 0x11b2 <__fp_nan>

00001046 <__divsf3x>:
    1046:	d7 d0       	rcall	.+430    	; 0x11f6 <__fp_split3>
    1048:	98 f3       	brcs	.-26     	; 0x1030 <__divsf3+0x4>

0000104a <__divsf3_pse>:
    104a:	99 23       	and	r25, r25
    104c:	c9 f3       	breq	.-14     	; 0x1040 <__divsf3+0x14>
    104e:	55 23       	and	r21, r21
    1050:	b1 f3       	breq	.-20     	; 0x103e <__divsf3+0x12>
    1052:	95 1b       	sub	r25, r21
    1054:	55 0b       	sbc	r21, r21
    1056:	bb 27       	eor	r27, r27
    1058:	aa 27       	eor	r26, r26
    105a:	62 17       	cp	r22, r18
    105c:	73 07       	cpc	r23, r19
    105e:	84 07       	cpc	r24, r20
    1060:	38 f0       	brcs	.+14     	; 0x1070 <__divsf3_pse+0x26>
    1062:	9f 5f       	subi	r25, 0xFF	; 255
    1064:	5f 4f       	sbci	r21, 0xFF	; 255
    1066:	22 0f       	add	r18, r18
    1068:	33 1f       	adc	r19, r19
    106a:	44 1f       	adc	r20, r20
    106c:	aa 1f       	adc	r26, r26
    106e:	a9 f3       	breq	.-22     	; 0x105a <__divsf3_pse+0x10>
    1070:	33 d0       	rcall	.+102    	; 0x10d8 <__divsf3_pse+0x8e>
    1072:	0e 2e       	mov	r0, r30
    1074:	3a f0       	brmi	.+14     	; 0x1084 <__divsf3_pse+0x3a>
    1076:	e0 e8       	ldi	r30, 0x80	; 128
    1078:	30 d0       	rcall	.+96     	; 0x10da <__divsf3_pse+0x90>
    107a:	91 50       	subi	r25, 0x01	; 1
    107c:	50 40       	sbci	r21, 0x00	; 0
    107e:	e6 95       	lsr	r30
    1080:	00 1c       	adc	r0, r0
    1082:	ca f7       	brpl	.-14     	; 0x1076 <__divsf3_pse+0x2c>
    1084:	29 d0       	rcall	.+82     	; 0x10d8 <__divsf3_pse+0x8e>
    1086:	fe 2f       	mov	r31, r30
    1088:	27 d0       	rcall	.+78     	; 0x10d8 <__divsf3_pse+0x8e>
    108a:	66 0f       	add	r22, r22
    108c:	77 1f       	adc	r23, r23
    108e:	88 1f       	adc	r24, r24
    1090:	bb 1f       	adc	r27, r27
    1092:	26 17       	cp	r18, r22
    1094:	37 07       	cpc	r19, r23
    1096:	48 07       	cpc	r20, r24
    1098:	ab 07       	cpc	r26, r27
    109a:	b0 e8       	ldi	r27, 0x80	; 128
    109c:	09 f0       	breq	.+2      	; 0x10a0 <__divsf3_pse+0x56>
    109e:	bb 0b       	sbc	r27, r27
    10a0:	80 2d       	mov	r24, r0
    10a2:	bf 01       	movw	r22, r30
    10a4:	ff 27       	eor	r31, r31
    10a6:	93 58       	subi	r25, 0x83	; 131
    10a8:	5f 4f       	sbci	r21, 0xFF	; 255
    10aa:	2a f0       	brmi	.+10     	; 0x10b6 <__divsf3_pse+0x6c>
    10ac:	9e 3f       	cpi	r25, 0xFE	; 254
    10ae:	51 05       	cpc	r21, r1
    10b0:	68 f0       	brcs	.+26     	; 0x10cc <__divsf3_pse+0x82>
    10b2:	79 c0       	rjmp	.+242    	; 0x11a6 <__fp_inf>
    10b4:	c3 c0       	rjmp	.+390    	; 0x123c <__fp_szero>
    10b6:	5f 3f       	cpi	r21, 0xFF	; 255
    10b8:	ec f3       	brlt	.-6      	; 0x10b4 <__divsf3_pse+0x6a>
    10ba:	98 3e       	cpi	r25, 0xE8	; 232
    10bc:	dc f3       	brlt	.-10     	; 0x10b4 <__divsf3_pse+0x6a>
    10be:	86 95       	lsr	r24
    10c0:	77 95       	ror	r23
    10c2:	67 95       	ror	r22
    10c4:	b7 95       	ror	r27
    10c6:	f7 95       	ror	r31
    10c8:	9f 5f       	subi	r25, 0xFF	; 255
    10ca:	c9 f7       	brne	.-14     	; 0x10be <__divsf3_pse+0x74>
    10cc:	88 0f       	add	r24, r24
    10ce:	91 1d       	adc	r25, r1
    10d0:	96 95       	lsr	r25
    10d2:	87 95       	ror	r24
    10d4:	97 f9       	bld	r25, 7
    10d6:	08 95       	ret
    10d8:	e1 e0       	ldi	r30, 0x01	; 1
    10da:	66 0f       	add	r22, r22
    10dc:	77 1f       	adc	r23, r23
    10de:	88 1f       	adc	r24, r24
    10e0:	bb 1f       	adc	r27, r27
    10e2:	62 17       	cp	r22, r18
    10e4:	73 07       	cpc	r23, r19
    10e6:	84 07       	cpc	r24, r20
    10e8:	ba 07       	cpc	r27, r26
    10ea:	20 f0       	brcs	.+8      	; 0x10f4 <__divsf3_pse+0xaa>
    10ec:	62 1b       	sub	r22, r18
    10ee:	73 0b       	sbc	r23, r19
    10f0:	84 0b       	sbc	r24, r20
    10f2:	ba 0b       	sbc	r27, r26
    10f4:	ee 1f       	adc	r30, r30
    10f6:	88 f7       	brcc	.-30     	; 0x10da <__divsf3_pse+0x90>
    10f8:	e0 95       	com	r30
    10fa:	08 95       	ret

000010fc <__fixsfsi>:
    10fc:	04 d0       	rcall	.+8      	; 0x1106 <__fixunssfsi>
    10fe:	68 94       	set
    1100:	b1 11       	cpse	r27, r1
    1102:	9c c0       	rjmp	.+312    	; 0x123c <__fp_szero>
    1104:	08 95       	ret

00001106 <__fixunssfsi>:
    1106:	7f d0       	rcall	.+254    	; 0x1206 <__fp_splitA>
    1108:	88 f0       	brcs	.+34     	; 0x112c <__fixunssfsi+0x26>
    110a:	9f 57       	subi	r25, 0x7F	; 127
    110c:	90 f0       	brcs	.+36     	; 0x1132 <__fixunssfsi+0x2c>
    110e:	b9 2f       	mov	r27, r25
    1110:	99 27       	eor	r25, r25
    1112:	b7 51       	subi	r27, 0x17	; 23
    1114:	a0 f0       	brcs	.+40     	; 0x113e <__fixunssfsi+0x38>
    1116:	d1 f0       	breq	.+52     	; 0x114c <__fixunssfsi+0x46>
    1118:	66 0f       	add	r22, r22
    111a:	77 1f       	adc	r23, r23
    111c:	88 1f       	adc	r24, r24
    111e:	99 1f       	adc	r25, r25
    1120:	1a f0       	brmi	.+6      	; 0x1128 <__fixunssfsi+0x22>
    1122:	ba 95       	dec	r27
    1124:	c9 f7       	brne	.-14     	; 0x1118 <__fixunssfsi+0x12>
    1126:	12 c0       	rjmp	.+36     	; 0x114c <__fixunssfsi+0x46>
    1128:	b1 30       	cpi	r27, 0x01	; 1
    112a:	81 f0       	breq	.+32     	; 0x114c <__fixunssfsi+0x46>
    112c:	86 d0       	rcall	.+268    	; 0x123a <__fp_zero>
    112e:	b1 e0       	ldi	r27, 0x01	; 1
    1130:	08 95       	ret
    1132:	83 c0       	rjmp	.+262    	; 0x123a <__fp_zero>
    1134:	67 2f       	mov	r22, r23
    1136:	78 2f       	mov	r23, r24
    1138:	88 27       	eor	r24, r24
    113a:	b8 5f       	subi	r27, 0xF8	; 248
    113c:	39 f0       	breq	.+14     	; 0x114c <__fixunssfsi+0x46>
    113e:	b9 3f       	cpi	r27, 0xF9	; 249
    1140:	cc f3       	brlt	.-14     	; 0x1134 <__fixunssfsi+0x2e>
    1142:	86 95       	lsr	r24
    1144:	77 95       	ror	r23
    1146:	67 95       	ror	r22
    1148:	b3 95       	inc	r27
    114a:	d9 f7       	brne	.-10     	; 0x1142 <__fixunssfsi+0x3c>
    114c:	3e f4       	brtc	.+14     	; 0x115c <__fixunssfsi+0x56>
    114e:	90 95       	com	r25
    1150:	80 95       	com	r24
    1152:	70 95       	com	r23
    1154:	61 95       	neg	r22
    1156:	7f 4f       	sbci	r23, 0xFF	; 255
    1158:	8f 4f       	sbci	r24, 0xFF	; 255
    115a:	9f 4f       	sbci	r25, 0xFF	; 255
    115c:	08 95       	ret

0000115e <__fp_cmp>:
    115e:	99 0f       	add	r25, r25
    1160:	00 08       	sbc	r0, r0
    1162:	55 0f       	add	r21, r21
    1164:	aa 0b       	sbc	r26, r26
    1166:	e0 e8       	ldi	r30, 0x80	; 128
    1168:	fe ef       	ldi	r31, 0xFE	; 254
    116a:	16 16       	cp	r1, r22
    116c:	17 06       	cpc	r1, r23
    116e:	e8 07       	cpc	r30, r24
    1170:	f9 07       	cpc	r31, r25
    1172:	c0 f0       	brcs	.+48     	; 0x11a4 <__fp_cmp+0x46>
    1174:	12 16       	cp	r1, r18
    1176:	13 06       	cpc	r1, r19
    1178:	e4 07       	cpc	r30, r20
    117a:	f5 07       	cpc	r31, r21
    117c:	98 f0       	brcs	.+38     	; 0x11a4 <__fp_cmp+0x46>
    117e:	62 1b       	sub	r22, r18
    1180:	73 0b       	sbc	r23, r19
    1182:	84 0b       	sbc	r24, r20
    1184:	95 0b       	sbc	r25, r21
    1186:	39 f4       	brne	.+14     	; 0x1196 <__fp_cmp+0x38>
    1188:	0a 26       	eor	r0, r26
    118a:	61 f0       	breq	.+24     	; 0x11a4 <__fp_cmp+0x46>
    118c:	23 2b       	or	r18, r19
    118e:	24 2b       	or	r18, r20
    1190:	25 2b       	or	r18, r21
    1192:	21 f4       	brne	.+8      	; 0x119c <__fp_cmp+0x3e>
    1194:	08 95       	ret
    1196:	0a 26       	eor	r0, r26
    1198:	09 f4       	brne	.+2      	; 0x119c <__fp_cmp+0x3e>
    119a:	a1 40       	sbci	r26, 0x01	; 1
    119c:	a6 95       	lsr	r26
    119e:	8f ef       	ldi	r24, 0xFF	; 255
    11a0:	81 1d       	adc	r24, r1
    11a2:	81 1d       	adc	r24, r1
    11a4:	08 95       	ret

000011a6 <__fp_inf>:
    11a6:	97 f9       	bld	r25, 7
    11a8:	9f 67       	ori	r25, 0x7F	; 127
    11aa:	80 e8       	ldi	r24, 0x80	; 128
    11ac:	70 e0       	ldi	r23, 0x00	; 0
    11ae:	60 e0       	ldi	r22, 0x00	; 0
    11b0:	08 95       	ret

000011b2 <__fp_nan>:
    11b2:	9f ef       	ldi	r25, 0xFF	; 255
    11b4:	80 ec       	ldi	r24, 0xC0	; 192
    11b6:	08 95       	ret

000011b8 <__fp_pscA>:
    11b8:	00 24       	eor	r0, r0
    11ba:	0a 94       	dec	r0
    11bc:	16 16       	cp	r1, r22
    11be:	17 06       	cpc	r1, r23
    11c0:	18 06       	cpc	r1, r24
    11c2:	09 06       	cpc	r0, r25
    11c4:	08 95       	ret

000011c6 <__fp_pscB>:
    11c6:	00 24       	eor	r0, r0
    11c8:	0a 94       	dec	r0
    11ca:	12 16       	cp	r1, r18
    11cc:	13 06       	cpc	r1, r19
    11ce:	14 06       	cpc	r1, r20
    11d0:	05 06       	cpc	r0, r21
    11d2:	08 95       	ret

000011d4 <__fp_round>:
    11d4:	09 2e       	mov	r0, r25
    11d6:	03 94       	inc	r0
    11d8:	00 0c       	add	r0, r0
    11da:	11 f4       	brne	.+4      	; 0x11e0 <__fp_round+0xc>
    11dc:	88 23       	and	r24, r24
    11de:	52 f0       	brmi	.+20     	; 0x11f4 <__fp_round+0x20>
    11e0:	bb 0f       	add	r27, r27
    11e2:	40 f4       	brcc	.+16     	; 0x11f4 <__fp_round+0x20>
    11e4:	bf 2b       	or	r27, r31
    11e6:	11 f4       	brne	.+4      	; 0x11ec <__fp_round+0x18>
    11e8:	60 ff       	sbrs	r22, 0
    11ea:	04 c0       	rjmp	.+8      	; 0x11f4 <__fp_round+0x20>
    11ec:	6f 5f       	subi	r22, 0xFF	; 255
    11ee:	7f 4f       	sbci	r23, 0xFF	; 255
    11f0:	8f 4f       	sbci	r24, 0xFF	; 255
    11f2:	9f 4f       	sbci	r25, 0xFF	; 255
    11f4:	08 95       	ret

000011f6 <__fp_split3>:
    11f6:	57 fd       	sbrc	r21, 7
    11f8:	90 58       	subi	r25, 0x80	; 128
    11fa:	44 0f       	add	r20, r20
    11fc:	55 1f       	adc	r21, r21
    11fe:	59 f0       	breq	.+22     	; 0x1216 <__fp_splitA+0x10>
    1200:	5f 3f       	cpi	r21, 0xFF	; 255
    1202:	71 f0       	breq	.+28     	; 0x1220 <__fp_splitA+0x1a>
    1204:	47 95       	ror	r20

00001206 <__fp_splitA>:
    1206:	88 0f       	add	r24, r24
    1208:	97 fb       	bst	r25, 7
    120a:	99 1f       	adc	r25, r25
    120c:	61 f0       	breq	.+24     	; 0x1226 <__fp_splitA+0x20>
    120e:	9f 3f       	cpi	r25, 0xFF	; 255
    1210:	79 f0       	breq	.+30     	; 0x1230 <__fp_splitA+0x2a>
    1212:	87 95       	ror	r24
    1214:	08 95       	ret
    1216:	12 16       	cp	r1, r18
    1218:	13 06       	cpc	r1, r19
    121a:	14 06       	cpc	r1, r20
    121c:	55 1f       	adc	r21, r21
    121e:	f2 cf       	rjmp	.-28     	; 0x1204 <__fp_split3+0xe>
    1220:	46 95       	lsr	r20
    1222:	f1 df       	rcall	.-30     	; 0x1206 <__fp_splitA>
    1224:	08 c0       	rjmp	.+16     	; 0x1236 <__fp_splitA+0x30>
    1226:	16 16       	cp	r1, r22
    1228:	17 06       	cpc	r1, r23
    122a:	18 06       	cpc	r1, r24
    122c:	99 1f       	adc	r25, r25
    122e:	f1 cf       	rjmp	.-30     	; 0x1212 <__fp_splitA+0xc>
    1230:	86 95       	lsr	r24
    1232:	71 05       	cpc	r23, r1
    1234:	61 05       	cpc	r22, r1
    1236:	08 94       	sec
    1238:	08 95       	ret

0000123a <__fp_zero>:
    123a:	e8 94       	clt

0000123c <__fp_szero>:
    123c:	bb 27       	eor	r27, r27
    123e:	66 27       	eor	r22, r22
    1240:	77 27       	eor	r23, r23
    1242:	cb 01       	movw	r24, r22
    1244:	97 f9       	bld	r25, 7
    1246:	08 95       	ret

00001248 <__gesf2>:
    1248:	8a df       	rcall	.-236    	; 0x115e <__fp_cmp>
    124a:	08 f4       	brcc	.+2      	; 0x124e <__gesf2+0x6>
    124c:	8f ef       	ldi	r24, 0xFF	; 255
    124e:	08 95       	ret

00001250 <__mulsf3>:
    1250:	0b d0       	rcall	.+22     	; 0x1268 <__mulsf3x>
    1252:	c0 cf       	rjmp	.-128    	; 0x11d4 <__fp_round>
    1254:	b1 df       	rcall	.-158    	; 0x11b8 <__fp_pscA>
    1256:	28 f0       	brcs	.+10     	; 0x1262 <__mulsf3+0x12>
    1258:	b6 df       	rcall	.-148    	; 0x11c6 <__fp_pscB>
    125a:	18 f0       	brcs	.+6      	; 0x1262 <__mulsf3+0x12>
    125c:	95 23       	and	r25, r21
    125e:	09 f0       	breq	.+2      	; 0x1262 <__mulsf3+0x12>
    1260:	a2 cf       	rjmp	.-188    	; 0x11a6 <__fp_inf>
    1262:	a7 cf       	rjmp	.-178    	; 0x11b2 <__fp_nan>
    1264:	11 24       	eor	r1, r1
    1266:	ea cf       	rjmp	.-44     	; 0x123c <__fp_szero>

00001268 <__mulsf3x>:
    1268:	c6 df       	rcall	.-116    	; 0x11f6 <__fp_split3>
    126a:	a0 f3       	brcs	.-24     	; 0x1254 <__mulsf3+0x4>

0000126c <__mulsf3_pse>:
    126c:	95 9f       	mul	r25, r21
    126e:	d1 f3       	breq	.-12     	; 0x1264 <__mulsf3+0x14>
    1270:	95 0f       	add	r25, r21
    1272:	50 e0       	ldi	r21, 0x00	; 0
    1274:	55 1f       	adc	r21, r21
    1276:	62 9f       	mul	r22, r18
    1278:	f0 01       	movw	r30, r0
    127a:	72 9f       	mul	r23, r18
    127c:	bb 27       	eor	r27, r27
    127e:	f0 0d       	add	r31, r0
    1280:	b1 1d       	adc	r27, r1
    1282:	63 9f       	mul	r22, r19
    1284:	aa 27       	eor	r26, r26
    1286:	f0 0d       	add	r31, r0
    1288:	b1 1d       	adc	r27, r1
    128a:	aa 1f       	adc	r26, r26
    128c:	64 9f       	mul	r22, r20
    128e:	66 27       	eor	r22, r22
    1290:	b0 0d       	add	r27, r0
    1292:	a1 1d       	adc	r26, r1
    1294:	66 1f       	adc	r22, r22
    1296:	82 9f       	mul	r24, r18
    1298:	22 27       	eor	r18, r18
    129a:	b0 0d       	add	r27, r0
    129c:	a1 1d       	adc	r26, r1
    129e:	62 1f       	adc	r22, r18
    12a0:	73 9f       	mul	r23, r19
    12a2:	b0 0d       	add	r27, r0
    12a4:	a1 1d       	adc	r26, r1
    12a6:	62 1f       	adc	r22, r18
    12a8:	83 9f       	mul	r24, r19
    12aa:	a0 0d       	add	r26, r0
    12ac:	61 1d       	adc	r22, r1
    12ae:	22 1f       	adc	r18, r18
    12b0:	74 9f       	mul	r23, r20
    12b2:	33 27       	eor	r19, r19
    12b4:	a0 0d       	add	r26, r0
    12b6:	61 1d       	adc	r22, r1
    12b8:	23 1f       	adc	r18, r19
    12ba:	84 9f       	mul	r24, r20
    12bc:	60 0d       	add	r22, r0
    12be:	21 1d       	adc	r18, r1
    12c0:	82 2f       	mov	r24, r18
    12c2:	76 2f       	mov	r23, r22
    12c4:	6a 2f       	mov	r22, r26
    12c6:	11 24       	eor	r1, r1
    12c8:	9f 57       	subi	r25, 0x7F	; 127
    12ca:	50 40       	sbci	r21, 0x00	; 0
    12cc:	8a f0       	brmi	.+34     	; 0x12f0 <__mulsf3_pse+0x84>
    12ce:	e1 f0       	breq	.+56     	; 0x1308 <__mulsf3_pse+0x9c>
    12d0:	88 23       	and	r24, r24
    12d2:	4a f0       	brmi	.+18     	; 0x12e6 <__mulsf3_pse+0x7a>
    12d4:	ee 0f       	add	r30, r30
    12d6:	ff 1f       	adc	r31, r31
    12d8:	bb 1f       	adc	r27, r27
    12da:	66 1f       	adc	r22, r22
    12dc:	77 1f       	adc	r23, r23
    12de:	88 1f       	adc	r24, r24
    12e0:	91 50       	subi	r25, 0x01	; 1
    12e2:	50 40       	sbci	r21, 0x00	; 0
    12e4:	a9 f7       	brne	.-22     	; 0x12d0 <__mulsf3_pse+0x64>
    12e6:	9e 3f       	cpi	r25, 0xFE	; 254
    12e8:	51 05       	cpc	r21, r1
    12ea:	70 f0       	brcs	.+28     	; 0x1308 <__mulsf3_pse+0x9c>
    12ec:	5c cf       	rjmp	.-328    	; 0x11a6 <__fp_inf>
    12ee:	a6 cf       	rjmp	.-180    	; 0x123c <__fp_szero>
    12f0:	5f 3f       	cpi	r21, 0xFF	; 255
    12f2:	ec f3       	brlt	.-6      	; 0x12ee <__mulsf3_pse+0x82>
    12f4:	98 3e       	cpi	r25, 0xE8	; 232
    12f6:	dc f3       	brlt	.-10     	; 0x12ee <__mulsf3_pse+0x82>
    12f8:	86 95       	lsr	r24
    12fa:	77 95       	ror	r23
    12fc:	67 95       	ror	r22
    12fe:	b7 95       	ror	r27
    1300:	f7 95       	ror	r31
    1302:	e7 95       	ror	r30
    1304:	9f 5f       	subi	r25, 0xFF	; 255
    1306:	c1 f7       	brne	.-16     	; 0x12f8 <__mulsf3_pse+0x8c>
    1308:	fe 2b       	or	r31, r30
    130a:	88 0f       	add	r24, r24
    130c:	91 1d       	adc	r25, r1
    130e:	96 95       	lsr	r25
    1310:	87 95       	ror	r24
    1312:	97 f9       	bld	r25, 7
    1314:	08 95       	ret

00001316 <__divmodhi4>:
    1316:	97 fb       	bst	r25, 7
    1318:	07 2e       	mov	r0, r23
    131a:	16 f4       	brtc	.+4      	; 0x1320 <__divmodhi4+0xa>
    131c:	00 94       	com	r0
    131e:	06 d0       	rcall	.+12     	; 0x132c <__divmodhi4_neg1>
    1320:	77 fd       	sbrc	r23, 7
    1322:	08 d0       	rcall	.+16     	; 0x1334 <__divmodhi4_neg2>
    1324:	36 d0       	rcall	.+108    	; 0x1392 <__udivmodhi4>
    1326:	07 fc       	sbrc	r0, 7
    1328:	05 d0       	rcall	.+10     	; 0x1334 <__divmodhi4_neg2>
    132a:	3e f4       	brtc	.+14     	; 0x133a <__divmodhi4_exit>

0000132c <__divmodhi4_neg1>:
    132c:	90 95       	com	r25
    132e:	81 95       	neg	r24
    1330:	9f 4f       	sbci	r25, 0xFF	; 255
    1332:	08 95       	ret

00001334 <__divmodhi4_neg2>:
    1334:	70 95       	com	r23
    1336:	61 95       	neg	r22
    1338:	7f 4f       	sbci	r23, 0xFF	; 255

0000133a <__divmodhi4_exit>:
    133a:	08 95       	ret

0000133c <__udivmodsi4>:
    133c:	a1 e2       	ldi	r26, 0x21	; 33
    133e:	1a 2e       	mov	r1, r26
    1340:	aa 1b       	sub	r26, r26
    1342:	bb 1b       	sub	r27, r27
    1344:	fd 01       	movw	r30, r26
    1346:	0d c0       	rjmp	.+26     	; 0x1362 <__udivmodsi4_ep>

00001348 <__udivmodsi4_loop>:
    1348:	aa 1f       	adc	r26, r26
    134a:	bb 1f       	adc	r27, r27
    134c:	ee 1f       	adc	r30, r30
    134e:	ff 1f       	adc	r31, r31
    1350:	a2 17       	cp	r26, r18
    1352:	b3 07       	cpc	r27, r19
    1354:	e4 07       	cpc	r30, r20
    1356:	f5 07       	cpc	r31, r21
    1358:	20 f0       	brcs	.+8      	; 0x1362 <__udivmodsi4_ep>
    135a:	a2 1b       	sub	r26, r18
    135c:	b3 0b       	sbc	r27, r19
    135e:	e4 0b       	sbc	r30, r20
    1360:	f5 0b       	sbc	r31, r21

00001362 <__udivmodsi4_ep>:
    1362:	66 1f       	adc	r22, r22
    1364:	77 1f       	adc	r23, r23
    1366:	88 1f       	adc	r24, r24
    1368:	99 1f       	adc	r25, r25
    136a:	1a 94       	dec	r1
    136c:	69 f7       	brne	.-38     	; 0x1348 <__udivmodsi4_loop>
    136e:	60 95       	com	r22
    1370:	70 95       	com	r23
    1372:	80 95       	com	r24
    1374:	90 95       	com	r25
    1376:	9b 01       	movw	r18, r22
    1378:	ac 01       	movw	r20, r24
    137a:	bd 01       	movw	r22, r26
    137c:	cf 01       	movw	r24, r30
    137e:	08 95       	ret

00001380 <__tablejump2__>:
    1380:	ee 0f       	add	r30, r30
    1382:	ff 1f       	adc	r31, r31
    1384:	00 24       	eor	r0, r0
    1386:	00 1c       	adc	r0, r0
    1388:	0b be       	out	0x3b, r0	; 59
    138a:	07 90       	elpm	r0, Z+
    138c:	f6 91       	elpm	r31, Z
    138e:	e0 2d       	mov	r30, r0
    1390:	09 94       	ijmp

00001392 <__udivmodhi4>:
    1392:	aa 1b       	sub	r26, r26
    1394:	bb 1b       	sub	r27, r27
    1396:	51 e1       	ldi	r21, 0x11	; 17
    1398:	07 c0       	rjmp	.+14     	; 0x13a8 <__udivmodhi4_ep>

0000139a <__udivmodhi4_loop>:
    139a:	aa 1f       	adc	r26, r26
    139c:	bb 1f       	adc	r27, r27
    139e:	a6 17       	cp	r26, r22
    13a0:	b7 07       	cpc	r27, r23
    13a2:	10 f0       	brcs	.+4      	; 0x13a8 <__udivmodhi4_ep>
    13a4:	a6 1b       	sub	r26, r22
    13a6:	b7 0b       	sbc	r27, r23

000013a8 <__udivmodhi4_ep>:
    13a8:	88 1f       	adc	r24, r24
    13aa:	99 1f       	adc	r25, r25
    13ac:	5a 95       	dec	r21
    13ae:	a9 f7       	brne	.-22     	; 0x139a <__udivmodhi4_loop>
    13b0:	80 95       	com	r24
    13b2:	90 95       	com	r25
    13b4:	bc 01       	movw	r22, r24
    13b6:	cd 01       	movw	r24, r26
    13b8:	08 95       	ret

000013ba <do_rand>:
    13ba:	8f 92       	push	r8
    13bc:	9f 92       	push	r9
    13be:	af 92       	push	r10
    13c0:	bf 92       	push	r11
    13c2:	cf 92       	push	r12
    13c4:	df 92       	push	r13
    13c6:	ef 92       	push	r14
    13c8:	ff 92       	push	r15
    13ca:	cf 93       	push	r28
    13cc:	df 93       	push	r29
    13ce:	ec 01       	movw	r28, r24
    13d0:	68 81       	ld	r22, Y
    13d2:	79 81       	ldd	r23, Y+1	; 0x01
    13d4:	8a 81       	ldd	r24, Y+2	; 0x02
    13d6:	9b 81       	ldd	r25, Y+3	; 0x03
    13d8:	61 15       	cp	r22, r1
    13da:	71 05       	cpc	r23, r1
    13dc:	81 05       	cpc	r24, r1
    13de:	91 05       	cpc	r25, r1
    13e0:	21 f4       	brne	.+8      	; 0x13ea <do_rand+0x30>
    13e2:	64 e2       	ldi	r22, 0x24	; 36
    13e4:	79 ed       	ldi	r23, 0xD9	; 217
    13e6:	8b e5       	ldi	r24, 0x5B	; 91
    13e8:	97 e0       	ldi	r25, 0x07	; 7
    13ea:	2d e1       	ldi	r18, 0x1D	; 29
    13ec:	33 ef       	ldi	r19, 0xF3	; 243
    13ee:	41 e0       	ldi	r20, 0x01	; 1
    13f0:	50 e0       	ldi	r21, 0x00	; 0
    13f2:	4e d0       	rcall	.+156    	; 0x1490 <__divmodsi4>
    13f4:	49 01       	movw	r8, r18
    13f6:	5a 01       	movw	r10, r20
    13f8:	9b 01       	movw	r18, r22
    13fa:	ac 01       	movw	r20, r24
    13fc:	a7 ea       	ldi	r26, 0xA7	; 167
    13fe:	b1 e4       	ldi	r27, 0x41	; 65
    1400:	63 d0       	rcall	.+198    	; 0x14c8 <__muluhisi3>
    1402:	6b 01       	movw	r12, r22
    1404:	7c 01       	movw	r14, r24
    1406:	ac ee       	ldi	r26, 0xEC	; 236
    1408:	b4 ef       	ldi	r27, 0xF4	; 244
    140a:	a5 01       	movw	r20, r10
    140c:	94 01       	movw	r18, r8
    140e:	68 d0       	rcall	.+208    	; 0x14e0 <__mulohisi3>
    1410:	dc 01       	movw	r26, r24
    1412:	cb 01       	movw	r24, r22
    1414:	8c 0d       	add	r24, r12
    1416:	9d 1d       	adc	r25, r13
    1418:	ae 1d       	adc	r26, r14
    141a:	bf 1d       	adc	r27, r15
    141c:	b7 ff       	sbrs	r27, 7
    141e:	03 c0       	rjmp	.+6      	; 0x1426 <do_rand+0x6c>
    1420:	01 97       	sbiw	r24, 0x01	; 1
    1422:	a1 09       	sbc	r26, r1
    1424:	b0 48       	sbci	r27, 0x80	; 128
    1426:	88 83       	st	Y, r24
    1428:	99 83       	std	Y+1, r25	; 0x01
    142a:	aa 83       	std	Y+2, r26	; 0x02
    142c:	bb 83       	std	Y+3, r27	; 0x03
    142e:	9f 77       	andi	r25, 0x7F	; 127
    1430:	df 91       	pop	r29
    1432:	cf 91       	pop	r28
    1434:	ff 90       	pop	r15
    1436:	ef 90       	pop	r14
    1438:	df 90       	pop	r13
    143a:	cf 90       	pop	r12
    143c:	bf 90       	pop	r11
    143e:	af 90       	pop	r10
    1440:	9f 90       	pop	r9
    1442:	8f 90       	pop	r8
    1444:	08 95       	ret

00001446 <rand_r>:
    1446:	b9 cf       	rjmp	.-142    	; 0x13ba <do_rand>

00001448 <rand>:
    1448:	80 e0       	ldi	r24, 0x00	; 0
    144a:	91 e0       	ldi	r25, 0x01	; 1
    144c:	b6 cf       	rjmp	.-148    	; 0x13ba <do_rand>

0000144e <srand>:
    144e:	a0 e0       	ldi	r26, 0x00	; 0
    1450:	b0 e0       	ldi	r27, 0x00	; 0
    1452:	80 93 00 01 	sts	0x0100, r24	; 0x800100 <__data_start>
    1456:	90 93 01 01 	sts	0x0101, r25	; 0x800101 <__data_start+0x1>
    145a:	a0 93 02 01 	sts	0x0102, r26	; 0x800102 <__data_start+0x2>
    145e:	b0 93 03 01 	sts	0x0103, r27	; 0x800103 <__data_start+0x3>
    1462:	08 95       	ret

00001464 <eeprom_read_byte>:
    1464:	f9 99       	sbic	0x1f, 1	; 31
    1466:	fe cf       	rjmp	.-4      	; 0x1464 <eeprom_read_byte>
    1468:	92 bd       	out	0x22, r25	; 34
    146a:	81 bd       	out	0x21, r24	; 33
    146c:	f8 9a       	sbi	0x1f, 0	; 31
    146e:	99 27       	eor	r25, r25
    1470:	80 b5       	in	r24, 0x20	; 32
    1472:	08 95       	ret

00001474 <eeprom_write_byte>:
    1474:	26 2f       	mov	r18, r22

00001476 <eeprom_write_r18>:
    1476:	f9 99       	sbic	0x1f, 1	; 31
    1478:	fe cf       	rjmp	.-4      	; 0x1476 <eeprom_write_r18>
    147a:	1f ba       	out	0x1f, r1	; 31
    147c:	92 bd       	out	0x22, r25	; 34
    147e:	81 bd       	out	0x21, r24	; 33
    1480:	20 bd       	out	0x20, r18	; 32
    1482:	0f b6       	in	r0, 0x3f	; 63
    1484:	f8 94       	cli
    1486:	fa 9a       	sbi	0x1f, 2	; 31
    1488:	f9 9a       	sbi	0x1f, 1	; 31
    148a:	0f be       	out	0x3f, r0	; 63
    148c:	01 96       	adiw	r24, 0x01	; 1
    148e:	08 95       	ret

00001490 <__divmodsi4>:
    1490:	05 2e       	mov	r0, r21
    1492:	97 fb       	bst	r25, 7
    1494:	16 f4       	brtc	.+4      	; 0x149a <__divmodsi4+0xa>
    1496:	00 94       	com	r0
    1498:	0f d0       	rcall	.+30     	; 0x14b8 <__negsi2>
    149a:	57 fd       	sbrc	r21, 7
    149c:	05 d0       	rcall	.+10     	; 0x14a8 <__divmodsi4_neg2>
    149e:	4e df       	rcall	.-356    	; 0x133c <__udivmodsi4>
    14a0:	07 fc       	sbrc	r0, 7
    14a2:	02 d0       	rcall	.+4      	; 0x14a8 <__divmodsi4_neg2>
    14a4:	46 f4       	brtc	.+16     	; 0x14b6 <__divmodsi4_exit>
    14a6:	08 c0       	rjmp	.+16     	; 0x14b8 <__negsi2>

000014a8 <__divmodsi4_neg2>:
    14a8:	50 95       	com	r21
    14aa:	40 95       	com	r20
    14ac:	30 95       	com	r19
    14ae:	21 95       	neg	r18
    14b0:	3f 4f       	sbci	r19, 0xFF	; 255
    14b2:	4f 4f       	sbci	r20, 0xFF	; 255
    14b4:	5f 4f       	sbci	r21, 0xFF	; 255

000014b6 <__divmodsi4_exit>:
    14b6:	08 95       	ret

000014b8 <__negsi2>:
    14b8:	90 95       	com	r25
    14ba:	80 95       	com	r24
    14bc:	70 95       	com	r23
    14be:	61 95       	neg	r22
    14c0:	7f 4f       	sbci	r23, 0xFF	; 255
    14c2:	8f 4f       	sbci	r24, 0xFF	; 255
    14c4:	9f 4f       	sbci	r25, 0xFF	; 255
    14c6:	08 95       	ret

000014c8 <__muluhisi3>:
    14c8:	0f d0       	rcall	.+30     	; 0x14e8 <__umulhisi3>
    14ca:	a5 9f       	mul	r26, r21
    14cc:	90 0d       	add	r25, r0
    14ce:	b4 9f       	mul	r27, r20
    14d0:	90 0d       	add	r25, r0
    14d2:	a4 9f       	mul	r26, r20
    14d4:	80 0d       	add	r24, r0
    14d6:	91 1d       	adc	r25, r1
    14d8:	11 24       	eor	r1, r1
    14da:	08 95       	ret

000014dc <__mulshisi3>:
    14dc:	b7 ff       	sbrs	r27, 7
    14de:	f4 cf       	rjmp	.-24     	; 0x14c8 <__muluhisi3>

000014e0 <__mulohisi3>:
    14e0:	f3 df       	rcall	.-26     	; 0x14c8 <__muluhisi3>
    14e2:	82 1b       	sub	r24, r18
    14e4:	93 0b       	sbc	r25, r19
    14e6:	08 95       	ret

000014e8 <__umulhisi3>:
    14e8:	a2 9f       	mul	r26, r18
    14ea:	b0 01       	movw	r22, r0
    14ec:	b3 9f       	mul	r27, r19
    14ee:	c0 01       	movw	r24, r0
    14f0:	a3 9f       	mul	r26, r19
    14f2:	70 0d       	add	r23, r0
    14f4:	81 1d       	adc	r24, r1
    14f6:	11 24       	eor	r1, r1
    14f8:	91 1d       	adc	r25, r1
    14fa:	b2 9f       	mul	r27, r18
    14fc:	70 0d       	add	r23, r0
    14fe:	81 1d       	adc	r24, r1
    1500:	11 24       	eor	r1, r1
    1502:	91 1d       	adc	r25, r1
    1504:	08 95       	ret

00001506 <_exit>:
    1506:	f8 94       	cli

00001508 <__stop_program>:
    1508:	ff cf       	rjmp	.-2      	; 0x1508 <__stop_program>
